(lp0
S'Identify the type of clothing depicted in the image ?'
p1
aS'Choose the option that best describes the scene ?'
p2
ag2
aS'Which of the following is present in the image ?'
p3
ag3
aS'Choose the option that best describes the people in the image ?'
p4
ag3
ag3
ag3
ag3
ag2
ag3
ag3
ag3
ag2
ag4
ag4
ag1
ag3
ag3
ag2
ag3
ag2
ag1
ag3
aS'Which type of vehicle(s) are present in the image ?'
p5
ag1
ag3
ag2
ag1
ag3
ag3
ag3
ag3
ag4
ag1
ag4
ag4
ag4
ag3
ag3
ag2
ag3
ag2
ag3
ag3
ag3
ag4
ag2
ag4
ag2
ag3
ag3
ag3
ag4
ag2
ag3
ag2
ag3
ag1
ag5
ag2
ag3
ag3
ag3
ag5
ag2
ag1
ag3
ag3
ag3
ag3
ag3
ag3
ag4
ag3
ag2
ag3
ag1
ag3
ag1
ag3
ag1
ag3
ag3
ag3
ag2
ag4
aS'What animals are shown in the picture ?'
p6
ag4
ag3
ag1
ag2
ag3
ag4
ag3
ag4
ag1
ag1
ag4
ag3
ag2
ag2
ag2
aS'Identify the bodypart present in the image ?'
p7
ag1
ag1
ag3
ag7
ag4
ag2
ag1
ag4
ag2
ag3
ag3
ag4
ag2
ag3
ag3
ag3
ag3
ag1
ag6
ag2
ag4
ag1
ag4
ag2
ag2
ag3
ag1
ag3
ag2
ag2
ag1
ag3
ag3
ag2
ag3
ag1
ag1
ag1
ag3
ag3
ag3
ag1
ag3
ag3
ag4
ag2
ag3
ag2
ag2
ag3
ag1
ag4
ag3
ag3
ag4
ag1
ag4
ag3
ag5
ag5
ag4
ag4
ag4
ag3
ag4
ag3
ag4
ag2
ag2
ag4
ag4
ag3
ag4
ag4
ag1
ag3
ag4
ag3
ag1
ag3
ag2
ag2
ag4
ag1
ag4
ag2
ag3
ag3
ag3
ag3
ag2
ag3
ag4
ag1
ag3
ag1
ag3
ag7
ag3
ag3
ag3
ag2
ag1
ag3
ag4
ag7
ag4
ag2
aS'Select the instruments shown in the image ?'
p8
ag4
ag1
ag3
ag3
ag1
ag3
ag4
ag1
ag3
ag3
ag3
ag3
ag4
ag2
ag2
ag3
ag1
ag5
ag3
ag3
ag1
ag3
ag1
ag1
ag2
ag3
ag4
ag4
ag3
ag3
ag3
ag3
ag1
ag3
ag1
ag4
ag3
ag3
ag3
ag3
ag2
ag2
ag1
ag4
ag3
ag3
ag8
ag4
ag2
ag1
ag3
ag3
ag1
ag1
ag3
ag3
ag3
ag2
ag3
ag2
ag3
ag3
ag3
ag8
ag3
ag3
ag4
ag2
ag3
ag1
ag4
ag7
ag2
ag2
ag8
ag2
ag6
ag7
ag3
ag2
ag2
ag7
ag4
ag4
ag5
ag3
ag1
ag2
ag3
ag2
ag3
ag1
ag6
ag3
ag3
ag4
ag2
ag3
ag3
ag2
ag1
ag3
ag3
ag3
ag1
ag4
ag6
ag3
ag3
ag3
ag3
ag3
ag2
ag3
ag1
ag2
ag1
ag5
ag1
ag3
ag4
ag2
ag6
ag4
ag2
ag7
ag1
ag3
ag4
ag3
ag3
ag3
ag2
ag5
ag3
ag3
ag2
ag3
ag4
ag4
ag2
ag4
ag2
ag3
ag3
ag4
ag3
ag3
ag4
ag3
ag6
ag3
ag4
ag1
ag2
ag3
ag3
ag2
ag4
ag1
ag1
ag3
ag2
ag5
ag3
ag1
ag3
ag1
ag3
ag3
ag3
ag3
ag6
ag6
ag1
ag4
ag5
ag6
ag2
ag1
ag1
ag3
ag3
ag3
ag3
ag3
ag3
ag3
ag4
ag2
ag8
ag3
ag3
ag3
ag2
ag2
ag3
ag2
ag2
ag2
ag3
ag3
ag3
ag3
ag1
ag7
ag2
ag3
ag3
ag2
ag3
ag3
ag3
ag3
ag6
ag2
ag4
ag2
ag5
ag2
ag1
ag4
ag3
ag1
ag3
ag1
ag1
ag3
ag7
ag3
ag4
ag3
ag6
ag4
ag3
ag3
ag3
ag1
ag7
ag1
ag2
ag2
ag3
ag3
ag3
ag3
ag3
ag3
ag2
ag1
ag4
ag3
ag1
ag2
ag2
ag3
ag4
ag3
ag6
ag1
ag7
ag2
ag2
ag5
ag3
ag3
ag4
ag2
ag3
ag3
ag5
ag1
ag1
ag7
ag3
ag4
ag4
ag4
ag4
ag4
ag2
ag7
ag3
ag4
ag3
ag3
ag1
ag4
ag7
ag3
ag3
ag4
ag4
ag3
ag3
ag2
ag4
ag3
ag3
ag3
ag3
ag7
ag1
ag3
ag3
ag3
ag1
ag4
ag3
ag3
ag2
ag3
ag3
ag3
ag4
ag1
ag3
ag3
ag7
ag3
ag3
ag3
ag4
ag3
ag2
ag3
ag3
ag1
ag1
ag1
ag4
ag4
ag4
ag4
ag3
ag2
ag2
ag2
ag2
ag1
ag2
ag3
ag3
ag5
ag1
ag4
ag3
ag3
ag3
ag3
ag3
ag5
ag3
ag1
ag4
ag2
ag1
ag1
ag2
ag2
ag7
ag6
ag3
ag3
ag3
ag3
ag2
ag7
ag4
ag3
ag4
ag3
ag3
ag4
ag3
ag4
ag2
ag3
ag3
ag1
ag3
ag3
ag3
ag1
ag3
ag3
ag1
ag4
ag3
ag3
ag3
ag5
ag1
ag3
ag2
ag3
ag3
ag3
ag2
ag3
ag2
ag4
ag1
ag1
ag1
ag3
ag1
ag1
ag3
ag4
ag3
ag3
ag4
ag3
ag1
ag4
ag2
ag1
ag5
ag1
ag3
ag3
ag3
ag1
ag6
ag3
ag3
ag1
ag3
ag1
ag1
ag3
ag3
ag2
ag3
ag3
ag3
ag1
ag3
ag1
ag4
ag3
ag3
ag3
ag3
ag3
ag4
ag6
ag3
ag1
ag3
ag3
ag4
ag6
ag3
ag2
ag5
ag3
ag3
ag3
ag3
ag3
ag3
ag3
ag1
ag3
ag3
ag4
ag3
ag4
ag3
ag2
ag3
ag3
ag3
ag2
ag4
ag3
ag2
ag1
ag4
ag4
ag1
ag3
ag4
ag3
ag3
ag2
ag4
ag3
ag3
ag4
ag1
ag3
ag2
ag3
ag4
ag3
ag3
ag2
ag1
ag1
ag4
ag1
ag3
ag6
ag1
ag4
ag4
ag3
ag3
ag3
ag2
ag2
ag3
ag3
ag5
ag1
ag2
ag6
ag3
ag4
ag3
ag3
ag7
ag2
ag3
ag1
ag3
ag4
ag6
ag5
ag3
ag3
ag3
ag1
ag4
ag2
ag4
ag3
ag4
ag3
ag3
ag4
ag4
ag1
ag2
ag1
ag3
ag2
ag1
ag2
ag3
ag1
ag1
ag1
ag8
ag3
ag2
ag3
ag3
ag4
ag3
ag3
ag3
ag4
ag4
ag3
ag1
ag1
ag3
ag3
ag3
ag3
ag2
ag7
ag3
ag3
ag1
ag3
ag3
ag2
ag3
ag4
ag3
ag2
ag3
ag7
ag3
ag2
ag3
ag3
ag4
ag3
ag1
ag4
ag3
ag3
ag3
ag3
ag2
ag4
ag3
ag4
ag3
ag1
ag3
ag3
ag4
ag3
ag3
ag3
ag2
ag2
ag3
ag7
ag2
ag3
ag3
ag3
ag1
ag2
ag3
ag4
ag3
ag2
ag3
ag4
ag1
ag2
ag2
ag5
ag3
ag3
ag2
ag4
ag4
ag2
ag3
ag2
ag4
ag3
ag2
ag2
ag3
ag3
ag4
ag2
ag2
ag3
ag3
ag3
ag3
ag3
ag4
ag3
ag1
ag1
ag1
ag1
ag3
ag7
ag3
ag2
ag2
ag4
ag2
ag3
ag4
ag1
ag1
ag3
ag2
ag4
ag2
ag3
ag2
ag1
ag3
ag6
ag1
ag3
ag3
ag7
ag1
ag2
ag3
ag3
ag1
ag3
ag2
ag4
ag2
ag1
ag2
ag3
ag4
ag3
ag3
ag3
ag2
ag2
ag3
ag3
ag7
ag4
ag6
ag1
ag1
ag2
ag3
ag2
ag7
ag3
ag3
ag3
ag3
ag3
ag1
ag6
ag4
ag6
ag3
ag3
ag5
ag2
ag3
ag1
ag3
ag3
ag3
ag3
ag3
ag2
ag2
ag3
ag4
ag2
ag5
ag2
ag3
ag2
ag3
ag4
ag3
ag4
ag7
ag3
ag4
ag3
ag3
ag7
ag6
ag4
ag4
ag4
ag3
ag1
ag4
ag4
ag3
ag4
ag3
ag3
ag4
ag2
ag3
ag3
ag6
ag1
ag3
ag3
ag2
ag3
ag1
ag2
ag3
ag3
ag3
ag3
ag2
ag3
ag3
ag3
ag3
ag3
ag1
ag1
ag2
ag3
ag3
ag4
ag3
ag3
ag3
ag7
ag4
ag2
ag4
ag1
ag4
ag2
ag1
ag3
ag3
ag3
ag3
ag2
ag7
ag3
ag4
ag3
ag3
ag6
ag7
ag4
ag2
ag4
ag4
ag2
ag3
ag3
ag2
ag2
ag2
ag4
ag4
ag3
ag6
ag3
ag3
ag7
ag1
ag4
ag3
ag6
ag1
ag4
ag3
ag3
ag2
ag1
ag3
ag1
ag5
ag3
ag1
ag3
ag3
ag3
ag3
ag1
ag3
ag3
ag3
ag3
ag3
ag3
ag2
ag6
ag4
ag3
ag3
ag2
ag2
ag3
ag3
ag3
ag3
ag4
ag3
ag3
ag2
ag3
ag2
ag3
ag4
ag1
ag4
ag3
ag1
ag1
ag7
ag3
ag3
ag3
ag3
ag2
ag1
ag2
ag3
ag3
ag1
ag8
ag3
ag1
ag3
ag1
ag3
ag3
ag2
ag1
ag3
ag3
ag4
ag2
ag4
ag3
ag7
ag4
ag4
ag5
ag3
ag1
ag4
ag2
ag6
ag3
ag3
ag4
ag2
ag1
ag2
ag6
ag3
ag1
ag2
ag1
ag3
ag3
ag2
ag4
ag1
ag3
ag2
ag2
ag3
ag1
ag4
ag1
ag1
ag3
ag4
ag2
ag1
ag3
ag3
ag3
ag7
ag3
ag1
ag2
ag3
ag2
ag1
ag3
ag4
ag3
ag3
ag4
ag3
ag1
ag3
ag4
ag2
ag6
ag1
ag4
ag5
ag3
ag3
ag2
ag1
ag3
ag2
ag3
ag3
ag4
ag3
ag2
ag3
ag3
ag4
ag3
ag2
ag6
ag1
ag3
ag3
ag2
ag3
ag4
ag3
ag2
ag2
ag3
ag3
ag2
ag5
ag3
ag4
ag4
ag1
ag3
ag3
ag3
ag3
ag2
ag1
ag2
ag3
ag2
ag2
ag1
ag3
ag3
ag4
ag7
ag2
ag3
ag3
ag4
ag2
ag1
ag2
ag3
ag2
ag3
ag4
ag3
ag4
ag2
ag2
ag3
ag6
ag3
ag2
ag3
ag3
ag7
ag1
ag3
ag3
ag7
ag1
ag2
ag4
ag3
ag2
ag1
ag4
ag3
ag2
ag2
ag4
ag7
ag4
ag4
ag3
ag3
ag3
ag6
ag3
ag3
ag3
ag3
ag1
ag3
ag7
ag2
ag3
ag7
ag1
ag4
ag3
ag2
ag3
ag2
ag3
ag3
ag3
ag3
ag2
ag3
ag7
ag3
ag4
ag1
ag4
ag3
ag3
ag3
ag3
ag1
ag3
ag3
ag3
ag2
ag3
ag2
ag2
ag2
ag1
ag3
ag3
ag4
ag5
ag4
ag3
ag4
ag3
ag3
ag5
ag3
ag3
ag3
ag3
ag3
ag3
ag1
ag4
ag3
ag7
ag3
ag7
ag7
ag3
ag2
ag2
ag3
ag2
ag2
ag4
ag1
ag3
ag7
ag3
ag1
ag4
ag3
ag3
ag2
ag4
ag3
ag2
ag8
ag4
ag2
ag1
ag4
ag1
ag3
ag3
ag3
ag3
ag3
ag1
ag3
ag3
ag3
ag2
ag3
ag4
ag1
ag3
ag6
ag3
ag3
ag1
ag1
ag3
ag4
ag5
ag3
ag3
ag3
ag3
ag3
ag3
ag7
ag3
ag4
ag3
ag3
ag3
ag3
ag3
ag3
ag3
ag3
ag4
ag4
ag3
ag3
ag4
ag5
ag4
ag3
ag7
ag5
ag3
ag3
ag3
ag3
ag3
ag1
ag3
ag3
ag2
ag4
ag2
ag2
ag3
ag1
ag4
ag3
ag4
ag2
ag3
ag3
ag6
ag3
ag1
ag1
ag1
ag3
ag2
ag3
ag3
ag3
ag3
ag1
ag1
ag3
ag4
ag3
ag3
ag2
ag3
ag1
ag3
ag3
ag3
ag3
ag2
ag3
ag2
ag3
ag4
ag3
ag1
ag4
ag3
ag4
ag2
ag3
ag1
ag1
ag1
ag3
ag2
ag3
ag3
ag3
ag3
ag5
ag2
ag3
ag4
ag3
ag3
ag3
ag4
ag2
ag3
ag3
ag3
ag2
ag2
ag3
ag3
ag3
ag2
ag3
ag3
ag3
ag1
ag4
ag3
ag3
ag2
ag3
ag1
ag3
ag2
ag3
ag1
ag4
ag1
ag3
ag4
ag4
ag3
ag3
ag2
ag4
ag1
ag3
ag4
ag7
ag3
ag7
ag5
ag6
ag3
ag2
ag5
ag7
ag4
ag2
ag5
ag1
ag4
ag4
ag1
ag3
ag4
ag1
ag4
ag2
ag3
ag2
ag2
ag3
ag1
ag3
ag1
ag2
ag2
ag1
ag3
ag3
ag4
ag1
ag3
ag1
ag1
ag1
ag3
ag3
ag2
ag3
ag8
ag3
ag3
ag4
ag3
ag3
ag2
ag3
ag4
ag6
ag3
ag3
ag3
ag3
ag3
ag3
ag1
ag5
ag3
ag3
ag3
ag3
ag3
ag3
ag1
ag1
ag3
ag2
ag4
ag3
ag3
ag2
ag1
ag4
ag4
ag3
ag7
ag3
ag1
ag1
ag3
ag3
ag3
ag3
ag3
ag5
ag2
ag2
ag2
ag3
ag4
ag1
ag1
ag1
ag3
ag5
ag3
ag2
ag2
ag1
ag2
ag3
ag2
ag3
ag2
ag2
ag6
ag1
ag1
ag2
ag3
ag3
ag2
ag3
ag4
ag1
ag3
ag7
ag3
ag3
ag2
ag1
ag7
ag3
ag3
ag2
ag3
ag3
ag2
ag2
ag2
ag3
ag3
ag3
ag3
ag1
ag1
ag3
ag5
ag3
ag3
ag3
ag2
ag1
ag3
ag4
ag3
ag3
ag4
ag3
ag3
ag2
ag4
ag3
ag1
ag3
ag3
ag4
ag4
ag3
ag3
ag8
ag3
ag2
ag3
ag3
ag3
ag4
ag3
ag3
ag1
ag3
ag4
ag3
ag2
ag2
ag1
ag2
ag2
ag4
ag4
ag3
ag4
ag2
ag1
ag3
ag2
ag3
ag1
ag1
ag4
ag3
ag2
ag3
ag1
ag3
ag3
ag1
ag3
ag3
ag4
ag3
ag3
ag7
ag1
ag3
ag3
ag3
ag3
ag3
ag3
ag3
ag2
ag6
ag3
ag1
ag3
ag3
ag3
ag4
ag3
ag4
ag3
ag3
ag3
ag3
ag3
ag3
ag3
ag4
ag3
ag3
ag8
ag3
ag1
ag3
ag2
ag4
ag3
ag3
ag4
ag3
ag3
ag2
ag3
ag7
ag3
ag1
ag3
ag2
ag4
ag3
ag1
ag3
ag1
ag1
ag3
ag3
ag6
ag5
ag3
ag3
ag2
ag3
ag1
ag3
ag2
ag4
ag4
ag2
ag3
ag3
ag3
ag3
ag3
ag2
ag2
ag3
ag3
ag3
ag2
ag2
ag3
ag3
ag3
ag4
ag2
ag3
ag8
ag2
ag3
ag4
ag1
ag1
ag3
ag3
ag6
ag2
ag7
ag5
ag4
ag3
ag3
ag3
ag2
ag2
ag2
ag3
ag2
ag1
ag3
ag6
ag6
ag1
ag3
ag4
ag7
ag2
ag6
ag3
ag1
ag2
ag2
ag3
ag7
ag2
ag7
ag3
ag2
ag6
ag1
ag4
ag1
ag2
ag2
ag3
ag2
ag2
ag3
ag4
ag2
ag3
ag1
ag7
ag1
ag4
ag2
ag3
ag3
ag3
ag3
ag1
ag3
ag4
ag2
ag2
ag3
ag2
ag3
ag3
ag2
ag4
ag3
ag3
ag2
ag2
ag4
ag1
ag2
ag2
ag1
ag7
ag1
ag1
ag3
ag3
ag3
ag1
ag1
ag1
ag1
ag3
ag3
ag3
ag1
ag4
ag2
ag4
ag1
ag3
ag1
ag3
ag7
ag4
ag4
ag5
ag3
ag3
ag3
ag4
ag3
ag3
ag3
ag3
ag2
ag4
ag6
ag5
ag3
ag3
ag5
ag3
ag3
ag1
ag4
ag4
ag2
ag3
ag6
ag2
ag3
ag3
ag2
ag2
ag2
ag3
ag8
ag4
ag3
ag3
ag1
ag3
ag3
ag4
ag4
ag3
ag2
ag3
ag3
ag4
ag1
ag3
ag3
ag2
ag2
ag3
ag3
ag6
ag1
ag3
ag4
ag4
ag3
ag3
ag1
ag3
ag4
ag3
ag3
ag1
ag3
ag4
ag2
ag1
ag3
ag2
ag3
ag2
ag2
ag3
ag3
ag1
ag4
ag3
ag2
ag4
ag3
ag1
ag3
ag4
ag4
ag3
ag3
ag1
ag3
ag8
ag3
ag4
ag4
ag3
ag4
ag2
ag1
ag4
ag7
ag3
ag4
ag3
ag2
ag1
ag2
ag1
ag1
ag2
ag3
ag3
ag1
ag2
ag3
ag1
ag7
ag4
ag2
ag2
ag3
ag4
ag3
ag3
ag2
ag3
ag3
ag3
ag3
ag3
ag1
ag4
ag3
ag2
ag1
ag3
ag3
ag3
ag2
ag3
ag2
ag7
ag2
ag3
ag3
ag2
ag3
ag7
ag3
ag3
ag2
ag3
ag4
ag3
ag1
ag4
ag3
ag3
ag3
ag3
ag3
ag3
ag3
ag3
ag3
ag3
ag2
ag3
ag1
ag3
ag4
ag2
ag3
ag3
ag1
ag3
ag1
ag7
ag1
ag1
ag4
ag4
ag3
ag3
ag3
ag3
ag1
ag4
ag2
ag3
ag6
ag4
ag3
ag2
ag4
ag2
ag4
ag3
ag1
ag3
ag3
ag3
ag8
ag6
ag3
ag3
ag3
ag3
ag1
ag3
ag3
ag3
ag1
ag3
ag3
ag2
ag3
ag2
ag4
ag3
ag3
ag1
ag1
ag2
ag1
ag3
ag7
ag3
ag3
ag1
ag3
ag1
ag2
ag2
ag1
ag1
ag3
ag3
ag3
ag4
ag2
ag3
ag3
ag1
ag3
ag3
ag1
ag3
ag2
ag3
ag3
ag4
ag3
ag3
ag2
ag3
ag3
ag7
ag2
ag3
ag3
ag3
ag4
ag1
ag1
ag4
ag1
ag1
ag3
ag3
ag3
ag3
ag2
ag3
ag3
ag2
ag1
ag4
ag4
ag3
ag2
ag2
ag4
ag3
ag3
ag3
ag3
ag1
ag3
ag2
ag3
ag4
ag7
ag1
ag3
ag1
ag3
ag4
ag3
ag3
ag3
ag3
ag7
ag1
ag4
ag3
ag6
ag3
ag4
ag3
ag4
ag4
ag3
ag2
ag2
ag2
ag3
ag1
ag6
ag3
ag8
ag1
ag3
ag2
ag3
ag2
ag1
ag3
ag3
ag3
ag2
ag3
ag2
ag3
ag4
ag3
ag3
ag3
ag3
ag6
ag2
ag2
ag3
ag3
ag2
ag2
ag4
ag2
ag5
ag3
ag2
ag3
ag6
ag3
ag3
ag3
ag3
ag2
ag3
ag2
ag3
ag8
ag3
ag3
ag3
ag3
ag1
ag1
ag3
ag3
ag6
ag3
ag3
ag2
ag3
ag1
ag3
ag3
ag3
ag4
ag2
ag3
ag7
ag3
ag7
ag3
ag3
ag3
ag3
ag2
ag3
ag3
ag3
ag2
ag1
ag2
ag3
ag7
ag3
ag2
ag3
ag1
ag1
ag4
ag3
ag4
ag3
ag2
ag7
ag2
ag1
ag3
ag1
ag3
ag3
ag6
ag2
ag3
ag3
ag3
ag1
ag3
ag6
ag3
ag3
ag3
ag4
ag3
ag4
ag3
ag2
ag2
ag4
ag7
ag4
ag1
ag4
ag1
ag3
ag2
ag4
ag4
ag3
ag3
ag2
ag3
ag3
ag3
ag4
ag2
ag2
ag3
ag2
ag3
ag3
ag1
ag7
ag3
ag4
ag4
ag2
ag3
ag4
ag3
ag3
ag5
ag3
ag3
ag4
ag7
ag3
ag3
ag3
ag3
ag3
ag2
ag4
ag4
ag3
ag1
ag3
ag1
ag3
ag1
ag3
ag3
ag4
ag1
ag4
ag2
ag3
ag1
ag7
ag1
ag3
ag4
ag7
ag3
ag3
ag1
ag1
ag7
ag7
ag3
ag1
ag3
ag1
ag3
ag4
ag1
ag6
ag3
ag3
ag1
ag4
ag3
ag3
ag3
ag3
ag7
ag2
ag6
ag2
ag3
ag8
ag7
ag1
ag1
ag3
ag3
ag3
ag2
ag1
ag3
ag6
ag3
ag3
ag3
ag2
ag3
ag4
ag2
ag1
ag1
ag7
ag3
ag1
ag3
ag1
ag1
ag3
ag1
ag1
ag4
ag3
ag3
ag2
ag3
ag3
ag1
ag1
ag4
ag4
ag3
ag3
ag1
ag1
ag5
ag3
ag7
ag3
ag4
ag3
ag3
ag3
ag2
ag1
ag3
ag3
ag2
ag3
ag1
ag4
ag2
ag1
ag1
ag4
ag2
ag2
ag3
ag3
ag7
ag1
ag3
ag4
ag3
ag1
ag1
ag4
ag1
ag3
ag4
ag4
ag2
ag3
ag1
ag3
ag3
ag3
ag3
ag2
ag1
ag3
ag1
ag3
ag3
ag4
ag2
ag3
ag3
ag3
ag3
ag3
ag4
ag4
ag2
ag3
ag3
ag1
ag5
ag3
ag1
ag3
ag4
ag3
ag4
ag3
ag3
ag2
ag3
ag3
ag3
ag4
ag1
ag3
ag1
ag7
ag3
ag3
ag1
ag4
ag3
ag3
ag1
ag3
ag1
ag2
ag3
ag3
ag2
ag4
ag3
ag3
ag3
ag3
ag3
ag1
ag8
ag6
ag3
ag3
ag3
ag1
ag1
ag3
ag3
ag3
ag4
ag3
ag3
ag3
ag3
ag3
ag3
ag2
ag3
ag3
ag3
ag3
ag2
ag3
ag3
ag4
ag3
ag1
ag7
ag3
ag7
ag6
ag3
ag3
ag3
ag3
ag4
ag4
ag1
ag3
ag3
ag2
ag3
ag2
ag3
ag3
ag3
ag3
ag8
ag4
ag4
ag3
ag3
ag4
ag3
ag3
ag3
ag3
ag3
ag2
ag2
ag2
ag3
ag3
ag3
ag3
ag3
ag3
ag3
ag3
ag3
ag3
ag3
ag1
ag4
ag3
ag3
ag2
ag7
ag3
ag2
ag3
ag2
ag3
ag4
ag3
ag3
ag2
ag3
ag1
ag7
ag3
ag2
ag2
ag7
ag3
ag3
ag4
ag2
ag4
ag2
ag2
ag2
ag3
ag3
ag1
ag3
ag3
ag3
ag1
ag2
ag2
ag4
ag3
ag3
ag3
ag3
ag1
ag2
ag4
ag8
ag3
ag4
ag3
ag3
ag3
ag3
ag5
ag3
ag3
ag4
ag1
ag4
ag3
ag4
ag3
ag3
ag2
ag3
ag3
ag3
ag3
ag3
ag5
ag2
ag1
ag1
ag3
ag2
ag4
ag3
ag4
ag2
ag1
ag2
ag3
ag4
ag3
ag3
ag3
ag5
ag2
ag4
ag7
ag2
ag2
ag2
ag4
ag3
ag3
ag1
ag1
ag3
ag2
ag2
ag1
ag3
ag7
ag3
ag3
ag3
ag2
ag3
ag4
ag3
ag3
ag1
ag1
ag3
ag2
ag3
ag1
ag4
ag1
ag3
ag3
ag3
ag4
ag3
ag2
ag6
ag2
ag3
ag7
ag1
ag4
ag3
ag6
ag2
ag3
ag3
ag1
ag3
ag1
ag3
ag3
ag3
ag3
ag1
ag1
ag4
ag3
ag1
ag3
ag7
ag5
ag4
ag2
ag3
ag3
ag3
ag1
ag3
ag6
ag3
ag6
ag2
ag3
ag7
ag1
ag3
ag5
ag5
ag1
ag2
ag2
ag6
ag4
ag3
ag3
ag3
ag1
ag3
ag3
ag3
ag4
ag4
ag3
ag6
ag3
ag3
ag6
ag2
ag3
ag2
ag4
ag7
ag3
ag3
ag2
ag3
ag2
ag3
ag3
ag4
ag3
ag3
ag3
ag2
ag2
ag2
ag3
ag3
ag3
ag2
ag3
ag3
ag3
ag3
ag2
ag1
ag1
ag3
ag3
ag3
ag3
ag2
ag7
ag2
ag3
ag4
ag4
ag4
ag2
ag3
ag6
ag1
ag1
ag2
ag3
ag3
ag4
ag3
ag3
ag3
ag3
ag3
ag2
ag3
ag3
ag4
ag4
ag2
ag5
ag7
ag4
ag4
ag1
ag3
ag3
ag2
ag3
ag1
ag3
ag6
ag6
ag1
ag3
ag4
ag2
ag3
ag3
ag3
ag4
ag4
ag3
ag3
ag3
ag2
ag3
ag3
ag3
ag2
ag5
ag2
ag4
ag1
ag4
ag5
ag4
ag3
ag3
ag4
ag2
ag3
ag4
ag6
ag1
ag4
ag1
ag3
ag3
ag3
ag1
ag2
ag3
ag2
ag3
ag4
ag3
ag6
ag4
ag5
ag4
ag2
ag1
ag3
ag4
ag1
ag2
ag2
ag4
ag3
ag1
ag2
ag4
ag3
ag2
ag3
ag5
ag1
ag4
ag3
ag1
ag3
ag3
ag2
ag2
ag5
ag4
ag3
ag1
ag3
ag3
ag7
ag4
ag1
ag3
ag2
ag3
ag3
ag5
ag1
ag3
ag4
ag3
ag3
ag1
ag3
ag4
ag4
ag3
ag1
ag4
ag6
ag2
ag3
ag1
ag7
ag3
ag4
ag3
ag3
ag6
ag3
ag3
ag3
ag2
ag2
ag2
ag4
ag3
ag3
ag2
ag3
ag3
ag1
ag3
ag2
ag3
ag3
ag3
ag4
ag3
ag2
ag3
ag4
ag3
ag3
ag2
ag4
ag3
ag4
ag1
ag2
ag3
ag4
ag3
ag5
ag4
ag3
ag4
ag3
ag4
ag3
ag3
ag3
ag3
ag3
ag3
ag4
ag2
ag3
ag3
ag2
ag1
ag3
ag4
ag3
ag1
ag1
ag2
ag1
ag2
ag3
ag3
ag3
ag4
ag4
ag3
ag4
ag7
ag3
ag3
ag3
ag3
ag3
ag7
ag2
ag1
ag1
ag3
ag4
ag1
ag3
ag2
ag3
ag4
ag2
ag3
ag2
ag1
ag4
ag1
ag2
ag3
ag4
ag3
ag3
ag3
ag4
ag3
ag4
ag3
ag2
ag3
ag3
ag3
ag4
ag2
ag1
ag4
ag3
ag4
ag3
ag5
ag3
ag2
ag4
ag3
ag4
ag7
ag3
ag4
ag3
ag3
ag2
ag3
ag2
ag7
ag3
ag3
ag1
ag1
ag4
ag3
ag4
ag3
ag4
ag2
ag2
ag3
ag4
ag3
ag8
ag4
ag3
ag2
ag1
ag1
ag1
ag3
ag2
ag3
ag3
ag3
ag1
ag3
ag3
ag5
ag3
ag3
ag1
ag2
ag3
ag2
ag3
ag3
ag2
ag3
ag3
ag1
ag4
ag3
ag1
ag2
ag3
ag6
ag7
ag3
ag3
ag4
ag3
ag3
ag3
ag3
ag2
ag3
ag4
ag1
ag3
ag1
ag3
ag2
ag3
ag4
ag3
ag2
ag3
ag3
ag3
ag3
ag3
ag3
ag4
ag1
ag6
ag1
ag3
ag1
ag2
ag2
ag2
ag3
ag3
ag2
ag3
ag3
ag2
ag3
ag1
ag2
ag1
ag3
ag2
ag2
ag1
ag2
ag3
ag4
ag3
ag3
ag3
ag3
ag2
ag3
ag3
ag3
ag3
ag3
ag2
ag3
ag2
ag4
ag1
ag3
ag3
ag3
ag3
ag3
ag3
ag3
ag2
ag5
ag3
ag3
ag2
ag4
ag3
ag3
ag1
ag1
ag4
ag2
ag2
ag3
ag7
ag3
ag3
ag8
ag3
ag2
ag3
ag4
ag3
ag3
ag2
ag3
ag4
ag3
ag3
ag4
ag3
ag2
ag3
ag1
ag3
ag1
ag3
ag3
ag1
ag2
ag2
ag4
ag3
ag1
ag3
ag4
ag3
ag7
ag3
ag3
ag3
ag3
ag2
ag2
ag7
ag3
ag3
ag2
ag3
ag3
ag3
ag3
ag1
ag6
ag2
ag3
ag3
ag3
ag2
ag1
ag2
ag3
ag3
ag4
ag3
ag3
ag4
ag3
ag3
ag3
ag4
ag3
ag1
ag1
ag4
ag4
ag3
ag2
ag1
ag1
ag5
ag3
ag3
ag2
ag3
ag3
ag2
ag4
ag2
ag3
ag3
ag3
ag3
ag2
ag2
ag3
ag1
ag3
ag7
ag3
ag1
ag3
ag2
ag1
ag4
ag3
ag3
ag1
ag1
ag4
ag3
ag4
ag1
ag1
ag3
ag4
ag4
ag3
ag4
ag2
ag2
ag3
ag3
ag3
ag3
ag3
ag4
ag1
ag3
ag4
ag3
ag1
ag1
ag4
ag1
ag3
ag1
ag6
ag3
ag3
ag1
ag2
ag3
ag3
ag1
ag1
ag2
ag3
ag3
ag3
ag4
ag3
ag3
ag1
ag3
ag3
ag3
ag2
ag4
ag2
ag3
ag2
ag3
ag3
ag3
ag1
ag4
ag3
ag7
ag4
ag2
ag7
ag6
ag3
ag2
ag5
ag1
ag3
ag3
ag3
ag3
ag1
ag3
ag1
ag3
ag3
ag3
ag3
ag3
ag3
ag3
ag3
ag1
ag3
ag1
ag3
ag3
ag3
ag3
ag3
ag4
ag2
ag3
ag5
ag1
ag1
ag4
ag3
ag3
ag3
ag3
ag3
ag2
ag3
ag3
ag2
ag3
ag2
ag3
ag3
ag4
ag3
ag3
ag4
ag1
ag4
ag4
ag7
ag4
ag4
ag3
ag3
ag3
ag4
ag3
ag3
ag4
ag4
ag3
ag5
ag2
ag4
ag3
ag3
ag1
ag3
ag3
ag1
ag3
ag2
ag2
ag2
ag7
ag4
ag3
ag4
ag3
ag3
ag2
ag3
ag3
ag3
ag3
ag3
ag4
ag3
ag1
ag3
ag3
ag3
ag2
ag4
ag2
ag4
ag3
ag4
ag3
ag4
ag3
ag3
ag1
ag7
ag4
ag3
ag5
ag1
ag1
ag4
ag3
ag3
ag2
ag3
ag2
ag3
ag3
ag1
ag7
ag1
ag6
ag3
ag3
ag3
ag3
ag2
ag3
ag1
ag3
ag3
ag1
ag1
ag3
ag1
ag3
ag1
ag1
ag3
ag7
ag3
ag3
ag4
ag3
ag3
ag1
ag1
ag1
ag1
ag7
ag1
ag3
ag1
ag2
ag3
ag1
ag3
ag3
ag3
ag3
ag4
ag2
ag3
ag1
ag4
ag5
ag3
ag3
ag3
ag1
ag2
ag2
ag2
ag1
ag3
ag2
ag4
ag3
ag4
ag4
ag3
ag1
ag3
ag6
ag1
ag2
ag7
ag1
ag3
ag2
ag1
ag5
ag3
ag2
ag3
ag3
ag2
ag3
ag6
ag1
ag3
ag4
ag3
ag3
ag3
ag2
ag4
ag3
ag3
ag3
ag2
ag3
ag1
ag2
ag4
ag2
ag1
ag3
ag4
ag1
ag3
ag3
ag2
ag7
ag4
ag4
ag3
ag3
ag2
ag1
ag3
ag3
ag3
ag4
ag2
ag4
ag2
ag3
ag3
ag3
ag8
ag3
ag3
ag4
ag3
ag3
ag2
ag2
ag4
ag3
ag3
ag3
ag4
ag4
ag4
ag4
ag2
ag4
ag4
ag2
ag4
ag3
ag4
ag3
ag2
ag1
ag2
ag4
ag3
ag3
ag3
ag3
ag2
ag1
ag2
ag3
ag3
ag1
ag3
ag2
ag2
ag2
ag6
ag4
ag3
ag3
ag3
ag3
ag3
ag2
ag3
ag3
ag4
ag2
ag3
ag3
ag3
ag3
ag3
ag4
ag2
ag3
ag4
ag4
ag2
ag3
ag2
ag7
ag2
ag3
ag2
ag7
ag3
ag3
ag2
ag3
ag3
ag2
ag2
ag1
ag1
ag3
ag2
ag3
ag3
ag2
ag4
ag3
ag3
ag6
ag2
ag8
ag2
ag3
ag3
ag4
ag3
ag3
ag8
ag3
ag2
ag3
ag3
ag3
ag1
ag2
ag4
ag3
ag3
ag3
ag2
ag3
ag4
ag3
ag6
ag3
ag7
ag4
ag2
ag4
ag3
ag5
ag3
ag3
ag1
ag3
ag3
ag1
ag3
ag2
ag5
ag2
ag3
ag3
ag1
ag3
ag5
ag3
ag4
ag4
ag1
ag3
ag3
ag4
ag3
ag3
ag2
ag1
ag1
ag3
ag3
ag3
ag2
ag3
ag3
ag3
ag3
ag5
ag7
ag3
ag1
ag3
ag1
ag4
ag3
ag3
ag3
ag1
ag3
ag3
ag3
ag2
ag2
ag3
ag3
ag1
ag2
ag3
ag1
ag4
ag3
ag1
ag3
ag6
ag1
ag4
ag2
ag2
ag3
ag3
ag3
ag3
ag2
ag3
ag4
ag3
ag3
ag3
ag3
ag6
ag3
ag3
ag3
ag1
ag3
ag4
ag3
ag4
ag3
ag4
ag5
ag3
ag4
ag3
ag2
ag3
ag3
ag3
ag3
ag6
ag4
ag3
ag3
ag1
ag2
ag3
ag8
ag4
ag7
ag4
ag7
ag4
ag3
ag2
ag3
ag3
ag1
ag1
ag3
ag3
ag7
ag2
ag7
ag3
ag3
ag2
ag4
ag5
ag4
ag3
ag1
ag4
ag2
ag2
ag1
ag3
ag3
ag3
ag3
ag3
ag2
ag1
ag1
ag5
ag2
ag3
ag3
ag1
ag3
ag2
ag1
ag4
ag3
ag3
ag2
ag3
ag3
ag4
ag3
ag1
ag1
ag3
ag5
ag3
ag2
ag1
ag3
ag3
ag3
ag3
ag4
ag3
ag3
ag2
ag3
ag3
ag4
ag3
ag3
ag1
ag1
ag2
ag7
ag6
ag4
ag7
ag6
ag4
ag3
ag1
ag1
ag2
ag3
ag3
ag2
ag3
ag6
ag3
ag1
ag4
ag2
ag3
ag3
ag3
ag3
ag3
ag3
ag3
ag1
ag3
ag3
ag3
ag1
ag4
ag2
ag4
ag2
ag3
ag3
ag3
ag1
ag3
ag3
ag2
ag3
ag2
ag4
ag1
ag3
ag3
ag5
ag4
ag2
ag4
ag2
ag1
ag2
ag4
ag3
ag1
ag3
ag4
ag5
ag3
ag4
ag4
ag4
ag3
ag1
ag3
ag4
ag2
ag3
ag3
ag1
ag3
ag2
ag2
ag3
ag2
ag6
ag2
ag1
ag3
ag7
ag3
ag3
ag4
ag6
ag2
ag3
ag4
ag1
ag2
ag2
ag1
ag3
ag1
ag2
ag4
ag1
ag1
ag2
ag3
ag3
ag1
ag3
ag3
ag3
ag3
ag3
ag3
ag3
ag3
ag4
ag3
ag3
ag1
ag3
ag4
ag1
ag3
ag3
ag3
ag3
ag3
ag3
ag3
ag8
ag3
ag3
ag3
ag2
ag3
ag1
ag3
ag1
ag3
ag3
ag3
ag2
ag1
ag4
ag4
ag4
ag2
ag3
ag2
ag1
ag3
ag4
ag2
ag2
ag1
ag4
ag3
ag4
ag3
ag1
ag6
ag2
ag3
ag7
ag2
ag4
ag2
ag4
ag1
ag3
ag4
ag3
ag3
ag2
ag3
ag1
ag1
ag3
ag3
ag3
ag1
ag3
ag3
ag3
ag2
ag1
ag2
ag3
ag7
ag2
ag6
ag3
ag2
ag3
ag2
ag3
ag3
ag3
ag4
ag1
ag1
ag3
ag2
ag3
ag4
ag3
ag4
ag4
ag3
ag2
ag1
ag4
ag2
ag3
ag7
ag2
ag3
ag3
ag3
ag2
ag7
ag3
ag3
ag1
ag3
ag3
ag1
ag3
ag4
ag3
ag4
ag3
ag2
ag3
ag3
ag2
ag1
ag3
ag5
ag4
ag3
ag3
ag3
ag3
ag7
ag3
ag4
ag3
ag3
ag3
ag1
ag4
ag3
ag3
ag3
ag3
ag2
ag2
ag2
ag5
ag3
ag2
ag2
ag3
ag3
ag3
ag4
ag3
ag5
ag3
ag4
ag1
ag3
ag3
ag1
ag3
ag3
ag3
ag2
ag3
ag3
ag3
ag2
ag5
ag3
ag3
ag2
ag1
ag3
ag3
ag3
ag4
ag3
ag3
ag4
ag3
ag3
ag4
ag3
ag4
ag7
ag4
ag3
ag1
ag1
ag3
ag5
ag3
ag4
ag4
ag2
ag1
ag1
ag2
ag4
ag3
ag3
ag3
ag3
ag4
ag3
ag1
ag3
ag2
ag3
ag3
ag3
ag1
ag3
ag4
ag4
ag3
ag3
ag2
ag3
ag7
ag3
ag4
ag3
ag2
ag3
ag3
ag2
ag3
ag1
ag3
ag1
ag3
ag4
ag3
ag1
ag3
ag3
ag1
ag2
ag1
ag4
ag2
ag3
ag2
ag3
ag3
ag4
ag3
ag4
ag3
ag1
ag3
ag2
ag4
ag2
ag1
ag2
ag2
ag3
ag4
ag2
ag1
ag3
ag1
ag4
ag1
ag3
ag5
ag1
ag2
ag2
ag3
ag2
ag1
ag3
ag2
ag3
ag3
ag3
ag4
ag1
ag3
ag5
ag3
ag6
ag2
ag3
ag2
ag2
ag3
ag1
ag3
ag3
ag1
ag2
ag4
ag3
ag2
ag3
ag1
ag1
ag3
ag8
ag8
ag4
ag5
ag4
ag1
ag1
ag3
ag3
ag3
ag2
ag2
ag1
ag3
ag3
ag3
ag3
ag3
ag2
ag3
ag1
ag3
ag4
ag3
ag2
ag3
ag2
ag3
ag3
ag1
ag3
ag7
ag4
ag1
ag3
ag4
ag3
ag4
ag2
ag2
ag2
ag1
ag3
ag4
ag3
ag4
ag3
ag1
ag1
ag3
ag4
ag3
ag2
ag4
ag3
ag3
ag3
ag4
ag8
ag6
ag3
ag6
ag3
ag3
ag3
ag4
ag3
ag3
ag2
ag1
ag4
ag2
ag3
ag3
ag2
ag2
ag1
ag1
ag3
ag4
ag3
ag3
ag5
ag3
ag3
ag1
ag3
ag3
ag3
ag3
ag3
ag3
ag3
ag1
ag3
ag2
ag4
ag2
ag4
ag2
ag2
ag3
ag4
ag3
ag3
ag3
ag1
ag1
ag3
ag2
ag3
ag4
ag3
ag3
ag4
ag3
ag3
ag3
ag4
ag3
ag7
ag2
ag3
ag3
ag4
ag3
ag3
ag2
ag1
ag3
ag7
ag1
ag2
ag7
ag1
ag3
ag3
ag3
ag4
ag3
ag3
ag3
ag3
ag2
ag3
ag3
ag2
ag6
ag1
ag6
ag1
ag3
ag3
ag1
ag1
ag2
ag3
ag3
ag1
ag3
ag3
ag3
ag5
ag3
ag1
ag4
ag3
ag1
ag1
ag3
ag3
ag4
ag2
ag4
ag3
ag3
ag2
ag1
ag3
ag5
ag1
ag4
ag5
ag3
ag3
ag1
ag3
ag3
ag3
ag3
ag1
ag3
ag3
ag1
ag2
ag2
ag7
ag2
ag4
ag3
ag6
ag6
ag3
ag7
ag1
ag7
ag1
ag1
ag3
ag2
ag7
ag1
ag2
ag2
ag3
ag1
ag3
ag2
ag2
ag4
ag3
ag4
ag7
ag3
ag3
ag5
ag1
ag1
ag3
ag3
ag1
ag3
ag2
ag2
ag4
ag4
ag3
ag3
ag3
ag3
ag3
ag1
ag3
ag4
ag3
ag2
ag3
ag3
ag4
ag3
ag3
ag2
ag5
ag4
ag4
ag3
ag3
ag4
ag3
ag1
ag1
ag3
ag1
ag3
ag3
ag3
ag2
ag4
ag3
ag2
ag4
ag3
ag1
ag4
ag3
ag3
ag3
ag1
ag3
ag3
ag3
ag2
ag2
ag6
ag1
ag3
ag3
ag2
ag2
ag4
ag3
ag3
ag1
ag3
ag1
ag3
ag3
ag2
ag4
ag4
ag1
ag2
ag3
ag2
ag2
ag2
ag3
ag2
ag1
ag7
ag2
ag4
ag3
ag4
ag2
ag3
ag3
ag3
ag3
ag6
ag4
ag4
ag1
ag4
ag3
ag4
ag3
ag1
ag2
ag3
ag3
ag3
ag3
ag3
ag3
ag3
ag6
ag4
ag1
ag2
ag3
ag1
ag4
ag2
ag4
ag3
ag1
ag1
ag3
ag3
ag2
ag2
ag4
ag3
ag1
ag2
ag2
ag1
ag4
ag3
ag7
ag6
ag2
ag4
ag3
ag3
ag4
ag1
ag4
ag6
ag3
ag2
ag3
ag3
ag3
ag4
ag3
ag3
ag4
ag3
ag2
ag6
ag2
ag2
ag3
ag3
ag4
ag2
ag4
ag4
ag7
ag3
ag2
ag3
ag3
ag3
ag2
ag1
ag5
ag3
ag3
ag2
ag1
ag5
ag3
ag2
ag4
ag2
ag1
ag3
ag3
ag1
ag3
ag4
ag3
ag3
ag4
ag2
ag4
ag3
ag4
ag3
ag3
ag3
ag1
ag4
ag3
ag3
ag3
ag7
ag3
ag3
ag4
ag2
ag3
ag1
ag3
ag6
ag3
ag6
ag1
ag1
ag3
ag3
ag5
ag2
ag3
ag3
ag2
ag6
ag2
ag2
ag1
ag3
ag1
ag3
ag8
ag4
ag2
ag3
ag3
ag5
ag4
ag2
ag3
ag7
ag3
ag2
ag1
ag1
ag4
ag3
ag3
ag1
ag1
ag1
ag2
ag3
ag4
ag3
ag2
ag4
ag3
ag3
ag3
ag4
ag6
ag1
ag4
ag3
ag3
ag2
ag3
ag3
ag3
ag3
ag3
ag4
ag1
ag3
ag1
ag2
ag3
ag1
ag3
ag2
ag2
ag3
ag3
ag6
ag3
ag3
ag2
ag3
ag7
ag4
ag1
ag1
ag2
ag1
ag2
ag4
ag3
ag2
ag3
ag1
ag3
ag4
ag1
ag4
ag3
ag3
ag1
ag2
ag3
ag3
ag2
ag3
ag3
ag3
ag1
ag6
ag3
ag3
ag3
ag3
ag4
ag3
ag3
ag3
ag2
ag1
ag2
ag3
ag2
ag1
ag3
ag3
ag3
ag3
ag3
ag3
ag1
ag2
ag3
ag4
ag3
ag3
ag4
ag1
ag1
ag3
ag7
ag2
ag3
ag3
ag3
ag3
ag2
ag3
ag2
ag3
ag2
ag3
ag4
ag3
ag3
ag3
ag1
ag1
ag3
ag1
ag3
ag3
ag3
ag3
ag4
ag3
ag3
ag3
ag4
ag3
ag4
ag3
ag2
ag3
ag3
ag3
ag3
ag2
ag1
ag3
ag4
ag3
ag3
ag4
ag2
ag3
ag4
ag3
ag3
ag1
ag4
ag3
ag1
ag3
ag1
ag3
ag4
ag2
ag2
ag4
ag7
ag1
ag7
ag3
ag3
ag1
ag3
ag2
ag3
ag3
ag1
ag3
ag3
ag3
ag3
ag6
ag1
ag4
ag2
ag4
ag6
ag3
ag3
ag1
ag3
ag4
ag2
ag3
ag3
ag3
ag2
ag4
ag2
ag1
ag3
ag4
ag3
ag2
ag3
ag2
ag2
ag7
ag3
ag2
ag1
ag4
ag1
ag3
ag3
ag3
ag1
ag3
ag3
ag3
ag3
ag1
ag3
ag7
ag3
ag4
ag4
ag4
ag3
ag2
ag4
ag4
ag2
ag1
ag3
ag4
ag3
ag3
ag2
ag1
ag3
ag6
ag3
ag3
ag4
ag7
ag4
ag3
ag7
ag5
ag2
ag1
ag2
ag2
ag3
ag3
ag1
ag3
ag1
ag1
ag2
ag1
ag4
ag1
ag3
ag4
ag6
ag6
ag4
ag1
ag2
ag3
ag2
ag2
ag2
ag2
ag3
ag3
ag4
ag4
ag2
ag3
ag1
ag3
ag3
ag3
ag3
ag3
ag2
ag1
ag4
ag3
ag3
ag4
ag1
ag7
ag3
ag3
ag1
ag3
ag3
ag1
ag2
ag2
ag1
ag2
ag3
ag3
ag1
ag2
ag3
ag2
ag4
ag3
ag3
ag3
ag3
ag4
ag3
ag3
ag5
ag4
ag3
ag3
ag1
ag2
ag3
ag5
ag3
ag1
ag2
ag3
ag1
ag6
ag4
ag2
ag3
ag6
ag2
ag3
ag2
ag3
ag2
ag2
ag2
ag1
ag4
ag7
ag1
ag4
ag1
ag1
ag2
ag3
ag3
ag3
ag4
ag1
ag3
ag3
ag3
ag2
ag4
ag4
ag1
ag3
ag2
ag2
ag8
ag4
ag4
ag3
ag3
ag3
ag5
ag1
ag1
ag4
ag3
ag4
ag3
ag4
ag3
ag4
ag1
ag4
ag4
ag3
ag4
ag3
ag1
ag4
ag3
ag3
ag4
ag3
ag3
ag4
ag3
ag3
ag4
ag3
ag3
ag3
ag2
ag3
ag3
ag2
ag1
ag2
ag4
ag2
ag3
ag4
ag3
ag3
ag1
ag4
ag2
ag3
ag2
ag3
ag2
ag3
ag2
ag4
ag1
ag6
ag8
ag2
ag3
ag3
ag3
ag3
ag4
ag2
ag3
ag2
ag3
ag3
ag1
ag3
ag1
ag4
ag3
ag2
ag4
ag7
ag3
ag3
ag7
ag2
ag3
ag2
ag7
ag3
ag3
ag3
ag5
ag1
ag3
ag6
ag3
ag3
ag3
ag3
ag2
ag3
ag4
ag3
ag2
ag3
ag3
ag4
ag2
ag3
ag1
ag3
ag7
ag3
ag2
ag4
ag3
ag2
ag2
ag3
ag7
ag1
ag3
ag8
ag3
ag3
ag2
ag1
ag3
ag1
ag3
ag3
ag7
ag3
ag1
ag4
ag3
ag3
ag3
ag1
ag6
ag3
ag2
ag4
ag2
ag4
ag3
ag4
ag3
ag3
ag1
ag2
ag3
ag1
ag3
ag1
ag3
ag3
ag3
ag3
ag4
ag4
ag6
ag3
ag3
ag4
ag1
ag3
ag2
ag4
ag4
ag4
ag3
ag1
ag6
ag5
ag3
ag3
ag1
ag3
ag3
ag3
ag2
ag2
ag4
ag6
ag1
ag4
ag4
ag2
ag3
ag1
ag3
ag2
ag1
ag1
ag2
ag3
ag2
ag3
ag3
ag5
ag4
ag3
ag3
ag1
ag6
ag7
ag3
ag2
ag1
ag4
ag3
ag3
ag4
ag3
ag1
ag3
ag2
ag2
ag3
ag3
ag4
ag4
ag1
ag4
ag4
ag3
ag3
ag4
ag3
ag1
ag2
ag3
ag3
ag3
ag1
ag3
ag3
ag1
ag2
ag3
ag3
ag3
ag1
ag1
ag4
ag2
ag2
ag3
ag3
ag3
ag7
ag3
ag3
ag3
ag3
ag7
ag3
ag5
ag3
ag4
ag1
ag3
ag1
ag1
ag2
ag3
ag4
ag3
ag3
ag3
ag1
ag4
ag3
ag1
ag2
ag1
ag3
ag4
ag3
ag4
ag3
ag7
ag1
ag3
ag3
ag1
ag6
ag3
ag4
ag6
ag4
ag5
ag4
ag2
ag3
ag3
ag2
ag3
ag3
ag3
ag1
ag4
ag1
ag1
ag3
ag7
ag1
ag3
ag3
ag4
ag3
ag4
ag2
ag4
ag2
ag1
ag3
ag3
ag3
ag3
ag1
ag2
ag4
ag3
ag3
ag2
ag4
ag2
ag1
ag3
ag2
ag3
ag1
ag2
ag3
ag3
ag6
ag3
ag3
ag4
ag4
ag3
ag1
ag3
ag2
ag3
ag2
ag7
ag3
ag4
ag3
ag3
ag4
ag2
ag1
ag1
ag3
ag1
ag7
ag3
ag7
ag3
ag4
ag6
ag1
ag3
ag4
ag3
ag1
ag1
ag3
ag2
ag2
ag3
ag1
ag2
ag1
ag2
ag4
ag3
ag3
ag3
ag1
ag3
ag5
ag1
ag4
ag2
ag3
ag1
ag3
ag4
ag2
ag3
ag3
ag1
ag2
ag2
ag2
ag2
ag7
ag3
ag3
ag3
ag1
ag1
ag3
ag1
ag2
ag3
ag2
ag3
ag4
ag3
ag7
ag2
ag3
ag7
ag3
ag1
ag3
ag1
ag1
ag3
ag3
ag3
ag2
ag3
ag3
ag1
ag3
ag1
ag3
ag3
ag4
ag3
ag3
ag3
ag3
ag4
ag1
ag3
ag3
ag1
ag3
ag2
ag4
ag4
ag1
ag4
ag4
ag1
ag3
ag1
ag3
ag3
ag3
ag3
ag4
ag1
ag2
ag4
ag4
ag3
ag3
ag2
ag4
ag3
ag3
ag2
ag3
ag1
ag1
ag3
ag4
ag3
ag7
ag1
ag2
ag2
ag3
ag1
ag3
ag2
ag3
ag2
ag1
ag2
ag3
ag3
ag3
ag3
ag3
ag6
ag3
ag3
ag3
ag7
ag4
ag4
ag3
ag2
ag3
ag3
ag4
ag1
ag6
ag3
ag3
ag2
ag4
ag4
ag4
ag4
ag3
ag3
ag1
ag3
ag1
ag3
ag6
ag1
ag4
ag3
ag1
ag3
ag4
ag1
ag3
ag1
ag2
ag3
ag2
ag2
ag8
ag3
ag2
ag1
ag1
ag3
ag2
ag3
ag4
ag2
ag3
ag4
ag3
ag3
ag5
ag3
ag3
ag2
ag4
ag3
ag4
ag3
ag3
ag4
ag2
ag2
ag7
ag3
ag3
ag1
ag4
ag4
ag1
ag7
ag3
ag3
ag3
ag3
ag3
ag2
ag4
ag7
ag4
ag2
ag3
ag1
ag3
ag2
ag3
ag2
ag3
ag3
ag1
ag4
ag1
ag3
ag5
ag3
ag4
ag3
ag4
ag7
ag3
ag1
ag4
ag3
ag3
ag4
ag2
ag6
ag3
ag3
ag3
ag3
ag3
ag7
ag3
ag1
ag3
ag2
ag2
ag3
ag3
ag4
ag3
ag1
ag3
ag1
ag7
ag3
ag2
ag4
ag1
ag3
ag4
ag3
ag7
ag2
ag4
ag3
ag4
ag1
ag3
ag2
ag2
ag3
ag2
ag2
ag3
ag3
ag4
ag6
ag3
ag6
ag1
ag5
ag3
ag4
ag2
ag1
ag3
ag3
ag1
ag3
ag3
ag3
ag6
ag3
ag3
ag2
ag2
ag1
ag3
ag3
ag5
ag7
ag1
ag2
ag3
ag2
ag3
ag3
ag4
ag3
ag3
ag1
ag3
ag4
ag4
ag3
ag2
ag2
ag4
ag1
ag1
ag3
ag1
ag2
ag3
ag3
ag3
ag3
ag3
ag3
ag3
ag2
ag4
ag3
ag3
ag3
ag3
ag3
ag2
ag3
ag1
ag3
ag3
ag3
ag3
ag3
ag3
ag2
ag2
ag3
ag3
ag2
ag3
ag3
ag3
ag6
ag3
ag3
ag1
ag5
ag3
ag4
ag2
ag3
ag4
ag2
ag4
ag3
ag3
ag4
ag3
ag2
ag3
ag6
ag2
ag2
ag2
ag2
ag2
ag7
ag4
ag1
ag3
ag6
ag2
ag4
ag3
ag3
ag3
ag5
ag3
ag4
ag6
ag3
ag2
ag3
ag3
ag3
ag3
ag4
ag6
ag3
ag4
ag1
ag4
ag3
ag8
ag1
ag2
ag2
ag3
ag4
ag4
ag3
ag1
ag1
ag4
ag3
ag3
ag4
ag2
ag3
ag3
ag4
ag2
ag2
ag2
ag7
ag5
ag3
ag3
ag3
ag3
ag2
ag3
ag3
ag6
ag3
ag4
ag4
ag3
ag1
ag1
ag3
ag4
ag4
ag3
ag3
ag2
ag3
ag3
ag3
ag3
ag2
ag4
ag3
ag2
ag3
ag3
ag1
ag4
ag6
ag3
ag2
ag4
ag1
ag7
ag4
ag3
ag4
ag3
ag3
ag3
ag1
ag1
ag7
ag6
ag1
ag2
ag3
ag4
ag3
ag2
ag2
ag4
ag4
ag3
ag2
ag2
ag1
ag3
ag2
ag2
ag3
ag3
ag2
ag2
ag4
ag7
ag3
ag2
ag3
ag3
ag1
ag3
ag3
ag2
ag2
ag3
ag3
ag3
ag1
ag1
ag1
ag3
ag7
ag2
ag3
ag1
ag3
ag2
ag1
ag1
ag3
ag7
ag4
ag7
ag1
ag3
ag3
ag3
ag3
ag4
ag1
ag3
ag1
ag5
ag3
ag4
ag2
ag2
ag2
ag4
ag1
ag2
ag3
ag4
ag3
ag3
ag3
ag3
ag3
ag4
ag3
ag3
ag3
ag6
ag4
ag7
ag4
ag2
ag3
ag3
ag3
ag2
ag3
ag7
ag4
ag1
ag3
ag1
ag2
ag3
ag2
ag3
ag3
ag8
ag1
ag4
ag2
ag3
ag4
ag3
ag2
ag3
ag1
ag1
ag1
ag3
ag4
ag3
ag3
ag3
ag3
ag1
ag8
ag1
ag4
ag3
ag1
ag3
ag3
ag2
ag2
ag1
ag3
ag3
ag3
ag2
ag3
ag7
ag3
ag4
ag3
ag2
ag1
ag1
ag4
ag2
ag6
ag5
ag3
ag3
ag2
ag3
ag3
ag2
ag1
ag3
ag1
ag3
ag7
ag2
ag3
ag3
ag1
ag4
ag4
ag3
ag1
ag3
ag2
ag3
ag3
ag3
ag5
ag1
ag3
ag1
ag3
ag3
ag3
ag2
ag4
ag4
ag3
ag7
ag1
ag3
ag3
ag2
ag3
ag3
ag4
ag2
ag3
ag3
ag1
ag4
ag2
ag3
ag3
ag3
ag3
ag5
ag3
ag2
ag3
ag3
ag4
ag3
ag4
ag1
ag4
ag1
ag3
ag3
ag4
ag3
ag2
ag1
ag8
ag1
ag4
ag3
ag2
ag8
ag3
ag1
ag1
ag5
ag3
ag2
ag1
ag3
ag3
ag3
ag4
ag2
ag2
ag4
ag2
ag4
ag1
ag3
ag3
ag1
ag3
ag3
ag1
ag4
ag3
ag4
ag2
ag4
ag3
ag4
ag3
ag1
ag4
ag1
ag4
ag3
ag3
ag1
ag3
ag3
ag4
ag4
ag7
ag4
ag3
ag3
ag6
ag4
ag1
ag3
ag7
ag1
ag5
ag3
ag2
ag7
ag4
ag3
ag3
ag5
ag3
ag3
ag3
ag6
ag3
ag1
ag4
ag1
ag3
ag1
ag4
ag3
ag4
ag1
ag3
ag2
ag3
ag3
ag4
ag2
ag3
ag3
ag3
ag3
ag4
ag3
ag4
ag4
ag3
ag1
ag2
ag3
ag3
ag1
ag2
ag3
ag3
ag1
ag2
ag2
ag3
ag2
ag3
ag4
ag2
ag3
ag3
ag4
ag2
ag3
ag3
ag4
ag1
ag3
ag3
ag3
ag4
ag1
ag3
ag3
ag2
ag2
ag3
ag1
ag4
ag5
ag3
ag7
ag2
ag3
ag3
ag2
ag3
ag1
ag3
ag4
ag2
ag3
ag3
ag1
ag1
ag3
ag3
ag3
ag2
ag3
ag4
ag1
ag1
ag2
ag4
ag1
ag2
ag4
ag4
ag3
ag4
ag3
ag4
ag2
ag4
ag3
ag3
ag3
ag7
ag2
ag5
ag4
ag3
ag3
ag3
ag3
ag3
ag4
ag2
ag3
ag1
ag6
ag4
ag3
ag3
ag7
ag4
ag3
ag3
ag2
ag1
ag2
ag4
ag3
ag4
ag2
ag1
ag4
ag3
ag1
ag1
ag3
ag1
ag4
ag3
ag3
ag3
ag3
ag3
ag3
ag4
ag1
ag4
ag4
ag3
ag3
ag8
ag3
ag1
ag3
ag3
ag2
ag3
ag4
ag3
ag3
ag3
ag3
ag1
ag4
ag3
ag4
ag3
ag3
ag4
ag1
ag2
ag4
ag3
ag6
ag8
ag4
ag4
ag3
ag3
ag3
ag3
ag3
ag3
ag3
ag2
ag3
ag3
ag2
ag4
ag3
ag2
ag4
ag3
ag1
ag3
ag6
ag2
ag1
ag3
ag4
ag7
ag3
ag3
ag4
ag1
ag5
ag3
ag4
ag2
ag1
ag3
ag3
ag2
ag1
ag3
ag1
ag2
ag3
ag2
ag7
ag2
ag1
ag1
ag4
ag4
ag1
ag7
ag1
ag3
ag2
ag2
ag3
ag1
ag3
ag3
ag3
ag3
ag2
ag2
ag3
ag1
ag2
ag3
ag3
ag4
ag3
ag2
ag3
ag3
ag4
ag3
ag4
ag3
ag1
ag3
ag3
ag4
ag2
ag2
ag3
ag3
ag3
ag2
ag4
ag4
ag1
ag4
ag3
ag4
ag3
ag1
ag1
ag5
ag1
ag3
ag3
ag2
ag4
ag3
ag3
ag3
ag1
ag2
ag7
ag1
ag2
ag1
ag5
ag4
ag3
ag3
ag2
ag3
ag1
ag7
ag3
ag7
ag4
ag4
ag3
ag3
ag1
ag3
ag3
ag3
ag3
ag2
ag2
ag1
ag2
ag2
ag3
ag2
ag1
ag3
ag4
ag3
ag3
ag3
ag2
ag4
ag3
ag3
ag3
ag4
ag1
ag4
ag3
ag3
ag1
ag2
ag6
ag2
ag6
ag2
ag3
ag1
ag3
ag3
ag2
ag3
ag1
ag7
ag2
ag4
ag2
ag3
ag5
ag2
ag4
ag7
ag3
ag3
ag4
ag3
ag3
ag8
ag4
ag4
ag3
ag3
ag4
ag1
ag3
ag4
ag3
ag4
ag1
ag3
ag4
ag2
ag4
ag2
ag3
ag2
ag3
ag2
ag3
ag1
ag1
ag3
ag3
ag2
ag3
ag3
ag3
ag6
ag1
ag7
ag1
ag8
ag3
ag2
ag3
ag1
ag7
ag1
ag4
ag3
ag3
ag3
ag1
ag3
ag4
ag3
ag3
ag2
ag3
ag4
ag3
ag2
ag7
ag5
ag2
ag3
ag3
ag3
ag3
ag4
ag1
ag1
ag2
ag1
ag1
ag1
ag3
ag4
ag1
ag2
ag1
ag3
ag3
ag3
ag3
ag2
ag4
ag2
ag4
ag2
ag3
ag3
ag3
ag4
ag3
ag3
ag3
ag3
ag5
ag1
ag3
ag7
ag4
ag3
ag1
ag4
ag3
ag3
ag3
ag3
ag4
ag1
ag3
ag4
ag2
ag2
ag3
ag8
ag3
ag4
ag4
ag4
ag2
ag3
ag3
ag3
ag2
ag4
ag4
ag3
ag3
ag2
ag2
ag4
ag3
ag3
ag3
ag3
ag4
ag3
ag1
ag3
ag4
ag3
ag3
ag4
ag3
ag3
ag5
ag3
ag2
ag5
ag3
ag3
ag3
ag3
ag3
ag2
ag3
ag1
ag1
ag2
ag3
ag1
ag2
ag7
ag2
ag1
ag8
ag2
ag3
ag4
ag7
ag3
ag3
ag1
ag2
ag3
ag2
ag3
ag3
ag4
ag1
ag4
ag3
ag3
ag3
ag3
ag7
ag2
ag1
ag2
ag4
ag4
ag3
ag3
ag3
ag3
ag1
ag1
ag6
ag4
ag1
ag2
ag1
ag3
ag3
ag6
ag4
ag2
ag2
ag3
ag4
ag5
ag4
ag4
ag7
ag3
ag7
ag3
ag7
ag2
ag3
ag3
ag4
ag2
ag4
ag1
ag3
ag3
ag4
ag3
ag3
ag1
ag2
ag3
ag3
ag3
ag4
ag3
ag3
ag2
ag3
ag3
ag3
ag7
ag1
ag2
ag1
ag3
ag1
ag2
ag3
ag3
ag3
ag4
ag4
ag4
ag2
ag3
ag4
ag3
ag7
ag3
ag1
ag1
ag1
ag4
ag3
ag3
ag2
ag2
ag4
ag1
ag5
ag3
ag3
ag3
ag4
ag3
ag4
ag1
ag4
ag3
ag1
ag3
ag7
ag4
ag3
ag3
ag3
ag1
ag4
ag3
ag3
ag1
ag3
ag1
ag2
ag3
ag3
ag3
ag3
ag3
ag4
ag4
ag4
ag4
ag2
ag3
ag7
ag6
ag2
ag3
ag2
ag3
ag4
ag3
ag3
ag2
ag4
ag3
ag8
ag1
ag3
ag4
ag3
ag2
ag1
ag4
ag3
ag3
ag3
ag2
ag2
ag3
ag3
ag4
ag4
ag8
ag2
ag3
ag3
ag3
ag4
ag7
ag1
ag3
ag3
ag3
ag3
ag3
ag3
ag3
ag3
ag3
ag4
ag6
ag4
ag1
ag2
ag2
ag3
ag3
ag3
ag4
ag3
ag3
ag3
ag4
ag3
ag3
ag2
ag5
ag3
ag5
ag4
ag4
ag2
ag3
ag3
ag3
ag3
ag2
ag4
ag3
ag4
ag3
ag2
ag3
ag2
ag3
ag3
ag3
ag3
ag3
ag3
ag4
ag4
ag3
ag3
ag1
ag3
ag7
ag3
ag2
ag3
ag3
ag3
ag3
ag3
ag2
ag4
ag3
ag1
ag2
ag3
ag3
ag5
ag1
ag3
ag3
ag3
ag4
ag3
ag1
ag2
ag3
ag4
ag2
ag3
ag2
ag1
ag7
ag2
ag3
ag1
ag4
ag2
ag3
ag2
ag4
ag2
ag3
ag1
ag1
ag3
ag5
ag1
ag2
ag5
ag3
ag5
ag3
ag3
ag2
ag3
ag2
ag3
ag1
ag4
ag1
ag3
ag3
ag3
ag3
ag3
ag5
ag1
ag3
ag2
ag3
ag3
ag1
ag3
ag2
ag1
ag3
ag5
ag4
ag2
ag3
ag2
ag3
ag1
ag3
ag3
ag3
ag3
ag2
ag5
ag3
ag3
ag1
ag1
ag4
ag4
ag3
ag4
ag3
ag6
ag5
ag1
ag3
ag3
ag2
ag3
ag3
ag3
ag3
ag1
ag4
ag3
ag3
ag3
ag3
ag1
ag3
ag4
ag1
ag1
ag8
ag2
ag3
ag4
ag3
ag4
ag2
ag4
ag3
ag4
ag3
ag2
ag4
ag4
ag3
ag3
ag1
ag3
ag3
ag3
ag2
ag3
ag3
ag3
ag7
ag3
ag1
ag4
ag2
ag1
ag4
ag3
ag1
ag3
ag3
ag4
ag7
ag2
ag1
ag2
ag7
ag2
ag1
ag3
ag2
ag1
ag3
ag3
ag5
ag7
ag1
ag4
ag1
ag2
ag3
ag3
ag1
ag3
ag3
ag3
ag3
ag3
ag7
ag1
ag4
ag6
ag3
ag1
ag2
ag3
ag2
ag2
ag3
ag2
ag3
ag4
ag3
ag4
ag2
ag4
ag2
ag5
ag1
ag6
ag2
ag4
ag3
ag5
ag3
ag1
ag2
ag1
ag4
ag3
ag8
ag3
ag2
ag3
ag4
ag2
ag4
ag1
ag3
ag1
ag2
ag1
ag1
ag1
ag2
ag2
ag4
ag3
ag3
ag3
ag3
ag3
ag3
ag3
ag3
ag3
ag3
ag3
ag2
ag5
ag4
ag1
ag1
ag3
ag3
ag2
ag3
ag3
ag3
ag3
ag3
ag3
ag3
ag1
ag3
ag2
ag6
ag2
ag3
ag4
ag3
ag7
ag3
ag1
ag1
ag3
ag6
ag1
ag4
ag4
ag1
ag3
ag3
ag3
ag3
ag1
ag3
ag2
ag3
ag4
ag2
ag1
ag1
ag4
ag3
ag1
ag3
ag1
ag4
ag2
ag2
ag3
ag3
ag3
ag4
ag7
ag2
ag1
ag2
ag3
ag3
ag3
ag2
ag3
ag1
ag3
ag4
ag3
ag3
ag4
ag3
ag4
ag3
ag3
ag2
ag3
ag3
ag3
ag3
ag4
ag3
ag4
ag3
ag3
ag3
ag4
ag3
ag3
ag1
ag3
ag1
ag3
ag3
ag3
ag3
ag2
ag2
ag1
ag1
ag1
ag3
ag3
ag1
ag3
ag3
ag3
ag1
ag2
ag4
ag2
ag2
ag1
ag3
ag1
ag4
ag3
ag3
ag3
ag3
ag3
ag5
ag3
ag7
ag3
ag2
ag4
ag1
ag2
ag2
ag1
ag7
ag3
ag2
ag3
ag4
ag3
ag3
ag3
ag4
ag4
ag7
ag3
ag3
ag1
ag2
ag3
ag3
ag3
ag4
ag2
ag7
ag4
ag3
ag3
ag1
ag4
ag4
ag1
ag2
ag4
ag3
ag1
ag1
ag3
ag3
ag1
ag3
ag1
ag3
ag4
ag2
ag1
ag7
ag3
ag3
ag3
ag4
ag3
ag4
ag3
ag7
ag4
ag3
ag7
ag1
ag3
ag2
ag1
ag3
ag1
ag3
ag2
ag3
ag1
ag4
ag3
ag3
ag7
ag5
ag3
ag1
ag4
ag3
ag3
ag3
ag2
ag3
ag1
ag4
ag4
ag3
ag1
ag3
ag3
ag3
ag3
ag4
ag3
ag3
ag5
ag2
ag3
ag6
ag3
ag3
ag3
ag3
ag1
ag4
ag2
ag1
ag2
ag3
ag3
ag1
ag3
ag2
ag2
ag2
ag3
ag4
ag3
ag2
ag1
ag3
ag4
ag1
ag3
ag4
ag3
ag3
ag3
ag3
ag1
ag3
ag4
ag3
ag3
ag1
ag3
ag4
ag3
ag3
ag3
ag1
ag3
ag4
ag7
ag3
ag3
ag4
ag2
ag7
ag4
ag2
ag3
ag4
ag3
ag3
ag3
ag2
ag2
ag3
ag1
ag3
ag3
ag5
ag1
ag2
ag4
ag3
ag3
ag3
ag3
ag4
ag5
ag7
ag2
ag1
ag3
ag4
ag4
ag7
ag3
ag1
ag3
ag3
ag5
ag4
ag3
ag3
ag3
ag3
ag1
ag3
ag3
ag3
ag1
ag3
ag3
ag3
ag4
ag5
ag3
ag4
ag5
ag4
ag1
ag7
ag4
ag4
ag2
ag3
ag3
ag3
ag4
ag1
ag3
ag3
ag4
ag3
ag3
ag3
ag2
ag3
ag3
ag8
ag1
ag2
ag4
ag8
ag3
ag4
ag2
ag4
ag4
ag2
ag3
ag4
ag3
ag4
ag3
ag3
ag3
ag3
ag6
ag2
ag7
ag6
ag2
ag3
ag1
ag2
ag3
ag3
ag3
ag1
ag3
ag3
ag3
ag7
ag3
ag1
ag1
ag4
ag2
ag2
ag4
ag1
ag1
ag3
ag3
ag3
ag3
ag1
ag3
ag3
ag1
ag2
ag3
ag1
ag3
ag4
ag1
ag4
ag2
ag2
ag3
ag3
ag3
ag3
ag1
ag3
ag2
ag3
ag3
ag4
ag3
ag4
ag2
ag3
ag1
ag4
ag3
ag2
ag1
ag4
ag2
ag3
ag4
ag4
ag4
ag1
ag2
ag3
ag4
ag4
ag4
ag2
ag3
ag1
ag3
ag4
ag3
ag2
ag2
ag3
ag2
ag7
ag1
ag3
ag2
ag2
ag1
ag4
ag3
ag3
ag3
ag3
ag4
ag3
ag1
ag2
ag6
ag3
ag2
ag3
ag3
ag4
ag2
ag5
ag3
ag3
ag1
ag6
ag5
ag4
ag3
ag3
ag1
ag1
ag4
ag4
ag1
ag3
ag3
ag4
ag1
ag1
ag3
ag2
ag6
ag3
ag6
ag2
ag4
ag1
ag4
ag7
ag3
ag4
ag4
ag3
ag1
ag4
ag4
ag3
ag5
ag1
ag2
ag1
ag2
ag2
ag4
ag3
ag1
ag6
ag3
ag3
ag1
ag4
ag4
ag2
ag3
ag3
ag2
ag4
ag1
ag4
ag3
ag3
ag1
ag4
ag3
ag3
ag2
ag1
ag2
ag3
ag3
ag4
ag1
ag1
ag7
ag3
ag4
ag3
ag4
ag2
ag2
ag1
ag3
ag1
ag1
ag3
ag3
ag4
ag3
ag1
ag4
ag3
ag7
ag2
ag3
ag4
ag4
ag2
ag1
ag3
ag6
ag3
ag1
ag3
ag3
ag2
ag3
ag4
ag3
ag7
ag4
ag1
ag1
ag3
ag2
ag4
ag3
ag1
ag1
ag5
ag3
ag3
ag3
ag5
ag3
ag3
ag2
ag3
ag4
ag3
ag1
ag1
ag3
ag2
ag4
ag2
ag7
ag3
ag3
ag4
ag6
ag3
ag3
ag1
ag3
ag1
ag3
ag4
ag3
ag3
ag2
ag7
ag3
ag3
ag4
ag3
ag1
ag3
ag1
ag3
ag3
ag3
ag4
ag3
ag1
ag4
ag1
ag3
ag1
ag3
ag3
ag3
ag4
ag4
ag2
ag3
ag2
ag4
ag3
ag3
ag3
ag4
ag1
ag3
ag3
ag7
ag2
ag3
ag3
ag2
ag1
ag3
ag1
ag3
ag3
ag2
ag4
ag2
ag4
ag3
ag3
ag4
ag4
ag1
ag4
ag3
ag3
ag4
ag3
ag5
ag3
ag1
ag7
ag4
ag7
ag3
ag3
ag2
ag3
ag1
ag3
ag2
ag4
ag3
ag4
ag2
ag3
ag3
ag3
ag3
ag3
ag4
ag3
ag3
ag2
ag3
ag3
ag3
ag3
ag3
ag3
ag2
ag3
ag3
ag2
ag7
ag1
ag3
ag3
ag3
ag1
ag3
ag1
ag3
ag3
ag3
ag4
ag6
ag1
ag2
ag3
ag3
ag3
ag3
ag3
ag3
ag3
ag7
ag4
ag4
ag3
ag3
ag3
ag3
ag2
ag2
ag4
ag3
ag3
ag2
ag6
ag2
ag4
ag2
ag2
ag3
ag2
ag2
ag3
ag6
ag3
ag3
ag3
ag3
ag2
ag1
ag7
ag3
ag3
ag3
ag1
ag3
ag3
ag2
ag2
ag2
ag3
ag3
ag2
ag3
ag7
ag3
ag3
ag7
ag1
ag3
ag1
ag1
ag3
ag3
ag1
ag2
ag4
ag4
ag2
ag1
ag2
ag4
ag2
ag2
ag3
ag4
ag3
ag1
ag3
ag3
ag1
ag4
ag3
ag4
ag1
ag3
ag1
ag4
ag7
ag4
ag2
ag3
ag4
ag2
ag3
ag2
ag7
ag1
ag3
ag2
ag4
ag2
ag3
ag3
ag3
ag3
ag2
ag3
ag1
ag3
ag1
ag3
ag2
ag7
ag3
ag3
ag4
ag3
ag2
ag3
ag1
ag2
ag3
ag4
ag2
ag2
ag2
ag4
ag3
ag1
ag3
ag4
ag3
ag5
ag7
ag3
ag1
ag3
ag3
ag7
ag4
ag1
ag5
ag6
ag7
ag3
ag3
ag3
ag3
ag3
ag2
ag2
ag3
ag2
ag7
ag3
ag6
ag3
ag1
ag4
ag2
ag2
ag1
ag3
ag3
ag3
ag3
ag2
ag7
ag3
ag3
ag1
ag3
ag7
ag7
ag3
ag2
ag3
ag3
ag5
ag6
ag3
ag3
ag4
ag3
ag2
ag3
ag3
ag4
ag2
ag3
ag3
ag2
ag3
ag1
ag3
ag3
ag4
ag1
ag3
ag3
ag3
ag4
ag4
ag2
ag1
ag3
ag3
ag1
ag2
ag3
ag2
ag3
ag4
ag3
ag6
ag3
ag3
ag5
ag4
ag1
ag3
ag1
ag3
ag3
ag3
ag3
ag3
ag3
ag1
ag3
ag2
ag4
ag2
ag4
ag2
ag1
ag1
ag2
ag7
ag3
ag3
ag5
ag3
ag4
ag2
ag1
ag4
ag3
ag2
ag3
ag4
ag3
ag3
ag5
ag6
ag1
ag4
ag3
ag2
ag2
ag7
ag1
ag3
ag2
ag3
ag4
ag3
ag3
ag3
ag2
ag4
ag3
ag4
ag3
ag3
ag3
ag4
ag3
ag1
ag7
ag5
ag3
ag1
ag3
ag2
ag4
ag3
ag4
ag1
ag3
ag3
ag3
ag3
ag4
ag3
ag3
ag1
ag4
ag2
ag3
ag3
ag2
ag7
ag3
ag4
ag3
ag2
ag3
ag3
ag2
ag1
ag3
ag3
ag3
ag3
ag3
ag1
ag8
ag2
ag3
ag2
ag3
ag1
ag2
ag2
ag3
ag3
ag2
ag3
ag4
ag3
ag3
ag2
ag2
ag3
ag3
ag3
ag3
ag3
ag3
ag5
ag8
ag4
ag2
ag1
ag3
ag3
ag3
ag2
ag2
ag3
ag2
ag3
ag3
ag3
ag3
ag2
ag3
ag1
ag2
ag7
ag7
ag7
ag1
ag4
ag3
ag3
ag3
ag3
ag3
ag3
ag5
ag2
ag3
ag3
ag3
ag2
ag3
ag3
ag4
ag3
ag1
ag4
ag3
ag3
ag4
ag1
ag2
ag3
ag2
ag3
ag4
ag1
ag3
ag3
ag3
ag4
ag3
ag2
ag8
ag3
ag3
ag1
ag3
ag2
ag1
ag1
ag3
ag1
ag7
ag3
ag7
ag3
ag3
ag3
ag2
ag3
ag3
ag4
ag4
ag2
ag1
ag3
ag6
ag3
ag2
ag3
ag4
ag2
ag3
ag6
ag6
ag3
ag3
ag2
ag3
ag3
ag3
ag3
ag7
ag1
ag1
ag2
ag2
ag2
ag3
ag3
ag3
ag4
ag4
ag3
ag3
ag5
ag2
ag3
ag3
ag2
ag3
ag3
ag2
ag5
ag3
ag7
ag3
ag3
ag4
ag4
ag1
ag3
ag7
ag2
ag3
ag4
ag3
ag4
ag5
ag1
ag4
ag2
ag2
ag7
ag7
ag1
ag3
ag1
ag4
ag1
ag4
ag2
ag3
ag4
ag3
ag2
ag3
ag6
ag3
ag4
ag3
ag3
ag3
ag4
ag3
ag1
ag4
ag2
ag1
ag4
ag1
ag4
ag3
ag2
ag1
ag7
ag1
ag3
ag2
ag7
ag3
ag2
ag3
ag3
ag3
ag4
ag3
ag3
ag3
ag3
ag3
ag2
ag3
ag2
ag2
ag3
ag3
ag2
ag3
ag1
ag3
ag3
ag5
ag3
ag7
ag1
ag3
ag3
ag3
ag2
ag1
ag1
ag2
ag2
ag3
ag5
ag3
ag4
ag3
ag2
ag2
ag3
ag3
ag3
ag3
ag3
ag3
ag3
ag3
ag6
ag3
ag3
ag2
ag1
ag4
ag3
ag8
ag4
ag4
ag3
ag4
ag4
ag6
ag3
ag3
ag3
ag3
ag2
ag3
ag3
ag2
ag3
ag3
ag3
ag4
ag6
ag2
ag1
ag3
ag1
ag1
ag8
ag1
ag3
ag3
ag3
ag4
ag3
ag3
ag1
ag3
ag1
ag1
ag3
ag4
ag2
ag1
ag3
ag4
ag1
ag3
ag3
ag3
ag1
ag7
ag4
ag1
ag4
ag4
ag3
ag4
ag1
ag2
ag2
ag1
ag3
ag3
ag2
ag2
ag1
ag3
ag3
ag1
ag4
ag3
ag2
ag4
ag3
ag3
ag1
ag3
ag1
ag1
ag2
ag1
ag3
ag2
ag2
ag3
ag2
ag3
ag1
ag2
ag3
ag3
ag1
ag3
ag4
ag2
ag3
ag4
ag3
ag2
ag4
ag3
ag2
ag2
ag7
ag2
ag4
ag2
ag3
ag4
ag3
ag5
ag3
ag4
ag2
ag2
ag3
ag3
ag3
ag4
ag3
ag1
ag5
ag3
ag1
ag1
ag2
ag1
ag7
ag3
ag2
ag4
ag3
ag4
ag3
ag3
ag2
ag1
ag2
ag1
ag1
ag3
ag2
ag3
ag7
ag3
ag3
ag7
ag1
ag4
ag3
ag6
ag3
ag1
ag6
ag3
ag3
ag2
ag4
ag2
ag3
ag4
ag4
ag2
ag3
ag3
ag3
ag3
ag4
ag4
ag3
ag1
ag2
ag3
ag3
ag1
ag2
ag4
ag3
ag3
ag2
ag2
ag4
ag3
ag3
ag3
ag3
ag1
ag2
ag8
ag3
ag3
ag4
ag3
ag2
ag3
ag4
ag3
ag6
ag3
ag3
ag3
ag1
ag4
ag3
ag3
ag4
ag3
ag3
ag2
ag2
ag4
ag3
ag3
ag2
ag3
ag3
ag2
ag7
ag3
ag2
ag2
ag3
ag2
ag2
ag2
ag1
ag3
ag1
ag2
ag3
ag3
ag3
ag1
ag3
ag1
ag3
ag4
ag3
ag4
ag3
ag3
ag5
ag4
ag2
ag2
ag3
ag3
ag2
ag1
ag3
ag6
ag3
ag1
ag3
ag7
ag3
ag4
ag3
ag3
ag3
ag2
ag3
ag2
ag4
ag3
ag4
ag2
ag2
ag4
ag1
ag3
ag3
ag2
ag2
ag2
ag3
ag3
ag2
ag2
ag1
ag4
ag3
ag2
ag3
ag2
ag4
ag2
ag3
ag2
ag3
ag3
ag6
ag3
ag3
ag3
ag4
ag4
ag3
ag3
ag3
ag3
ag3
ag3
ag3
ag3
ag3
ag3
ag4
ag2
ag4
ag3
ag3
ag1
ag3
ag3
ag3
ag1
ag5
ag4
ag1
ag3
ag2
ag1
ag3
ag2
ag1
ag4
ag4
ag2
ag5
ag3
ag1
ag4
ag3
ag3
ag3
ag1
ag8
ag2
ag7
ag1
ag4
ag5
ag3
ag3
ag3
ag3
ag3
ag3
ag1
ag2
ag3
ag2
ag3
ag1
ag4
ag3
ag2
ag3
ag3
ag3
ag1
ag3
ag3
ag2
ag2
ag4
ag2
ag3
ag1
ag1
ag2
ag4
ag4
ag3
ag3
ag3
ag3
ag3
ag2
ag3
ag2
ag4
ag2
ag3
ag3
ag3
ag3
ag3
ag3
ag3
ag4
ag4
ag4
ag2
ag3
ag3
ag3
ag2
ag6
ag2
ag3
ag2
ag2
ag4
ag2
ag3
ag3
ag2
ag2
ag2
ag3
ag4
ag6
ag3
ag3
ag3
ag3
ag3
ag2
ag3
ag3
ag3
ag4
ag6
ag3
ag4
ag1
ag7
ag2
ag3
ag3
ag3
ag1
ag1
ag2
ag4
ag3
ag3
ag3
ag2
ag3
ag2
ag3
ag1
ag3
ag3
ag3
ag3
ag1
ag4
ag3
ag3
ag5
ag5
ag3
ag4
ag3
ag3
ag2
ag4
ag2
ag2
ag3
ag2
ag3
ag2
ag4
ag1
ag4
ag2
ag7
ag2
ag4
ag3
ag3
ag7
ag4
ag3
ag2
ag3
ag3
ag6
ag3
ag3
ag3
ag3
ag3
ag4
ag1
ag3
ag3
ag3
ag1
ag3
ag4
ag3
ag4
ag3
ag3
ag3
ag3
ag3
ag4
ag2
ag6
ag3
ag4
ag3
ag3
ag2
ag3
ag1
ag1
ag3
ag2
ag4
ag2
ag2
ag2
ag3
ag4
ag2
ag2
ag3
ag3
ag3
ag1
ag2
ag3
ag2
ag6
ag3
ag1
ag4
ag3
ag3
ag2
ag2
ag3
ag4
ag1
ag7
ag7
ag2
ag8
ag1
ag1
ag3
ag4
ag3
ag3
ag2
ag3
ag3
ag3
ag1
ag7
ag3
ag4
ag1
ag1
ag3
ag3
ag1
ag3
ag4
ag4
ag4
ag3
ag4
ag3
ag2
ag2
ag2
ag4
ag2
ag4
ag3
ag2
ag3
ag5
ag3
ag1
ag3
ag2
ag3
ag2
ag6
ag3
ag2
ag2
ag7
ag3
ag4
ag3
ag4
ag3
ag3
ag2
ag3
ag3
ag4
ag3
ag2
ag5
ag4
ag2
ag3
ag3
ag6
ag2
ag3
ag3
ag4
ag3
ag3
ag4
ag2
ag3
ag4
ag2
ag2
ag7
ag5
ag4
ag1
ag3
ag2
ag1
ag1
ag2
ag7
ag3
ag3
ag5
ag3
ag3
ag2
ag5
ag3
ag4
ag4
ag3
ag3
ag1
ag4
ag1
ag3
ag2
ag2
ag3
ag3
ag3
ag1
ag3
ag1
ag3
ag3
ag2
ag3
ag4
ag3
ag6
ag1
ag7
ag3
ag1
ag3
ag3
ag2
ag3
ag4
ag1
ag5
ag3
ag3
ag3
ag1
ag4
ag3
ag4
ag4
ag1
ag2
ag3
ag2
ag3
ag7
ag4
ag1
ag3
ag3
ag3
ag3
ag3
ag4
ag3
ag3
ag1
ag5
ag3
ag2
ag4
ag2
ag6
ag3
ag4
ag3
ag4
ag3
ag2
ag3
ag3
ag6
ag3
ag3
ag3
ag3
ag3
ag3
ag1
ag3
ag3
ag7
ag3
ag4
ag4
ag3
ag1
ag3
ag3
ag3
ag2
ag3
ag4
ag3
ag2
ag6
ag1
ag3
ag2
ag3
ag4
ag7
ag3
ag4
ag3
ag3
ag1
ag3
ag3
ag4
ag8
ag3
ag1
ag1
ag3
ag1
ag3
ag1
ag8
ag3
ag4
ag3
ag3
ag3
ag3
ag3
ag2
ag1
ag7
ag6
ag3
ag4
ag2
ag3
ag3
ag4
ag1
ag3
ag7
ag3
ag3
ag3
ag3
ag3
ag2
ag3
ag3
ag4
ag7
ag3
ag3
ag3
ag2
ag3
ag3
ag3
ag4
ag2
ag3
ag3
ag3
ag2
ag3
ag4
ag3
ag3
ag3
ag1
ag3
ag3
ag3
ag3
ag2
ag3
ag3
ag5
ag1
ag4
ag3
ag2
ag4
ag3
ag3
ag2
ag6
ag4
ag3
ag1
ag3
ag3
ag2
ag3
ag1
ag3
ag1
ag3
ag3
ag3
ag3
ag3
ag4
ag3
ag3
ag1
ag7
ag2
ag3
ag3
ag3
ag3
ag3
ag3
ag3
ag4
ag3
ag4
ag2
ag1
ag4
ag3
ag2
ag2
ag2
ag3
ag5
ag1
ag3
ag2
ag2
ag3
ag3
ag3
ag4
ag4
ag3
ag1
ag3
ag3
ag3
ag4
ag5
ag1
ag3
ag4
ag1
ag4
ag4
ag1
ag3
ag3
ag4
ag3
ag3
ag3
ag1
ag3
ag3
ag7
ag2
ag1
ag1
ag3
ag3
ag6
ag3
ag2
ag3
ag3
ag1
ag4
ag4
ag4
ag4
ag2
ag3
ag5
ag2
ag3
ag3
ag7
ag3
ag4
ag4
ag3
ag3
ag2
ag3
ag4
ag3
ag7
ag1
ag3
ag2
ag1
ag2
ag1
ag3
ag3
ag3
ag2
ag3
ag3
ag4
ag3
ag1
ag3
ag2
ag3
ag2
ag4
ag3
ag2
ag1
ag2
ag3
ag4
ag4
ag2
ag3
ag3
ag3
ag4
ag3
ag1
ag4
ag3
ag4
ag7
ag3
ag3
ag3
ag3
ag3
ag3
ag3
ag3
ag3
ag3
ag4
ag2
ag4
ag4
ag1
ag1
ag2
ag3
ag3
ag1
ag3
ag3
ag3
ag2
ag7
ag1
ag3
ag3
ag4
ag3
ag2
ag4
ag5
ag3
ag2
ag3
ag3
ag2
ag2
ag7
ag3
ag8
ag3
ag3
ag3
ag2
ag3
ag2
ag2
ag2
ag3
ag4
ag3
ag3
ag2
ag2
ag1
ag3
ag3
ag1
ag4
ag3
ag4
ag2
ag2
ag4
ag3
ag3
ag7
ag1
ag3
ag4
ag3
ag3
ag3
ag1
ag8
ag3
ag2
ag3
ag3
ag1
ag3
ag3
ag3
ag7
ag2
ag3
ag1
ag1
ag3
ag3
ag2
ag4
ag3
ag3
ag3
ag3
ag3
ag3
ag3
ag1
ag3
ag2
ag3
ag6
ag3
ag1
ag2
ag7
ag3
ag2
ag3
ag1
ag4
ag3
ag2
ag3
ag4
ag1
ag4
ag3
ag4
ag3
ag3
ag1
ag3
ag3
ag7
ag3
ag3
ag4
ag1
ag3
ag3
ag3
ag3
ag3
ag4
ag4
ag3
ag3
ag4
ag1
ag2
ag3
ag3
ag7
ag4
ag3
ag6
ag2
ag3
ag7
ag1
ag3
ag3
ag3
ag3
ag4
ag3
ag3
ag3
ag3
ag4
ag3
ag3
ag2
ag3
ag3
ag2
ag2
ag3
ag4
ag5
ag3
ag7
ag3
ag3
ag1
ag4
ag2
ag3
ag2
ag4
ag4
ag4
ag3
ag3
ag3
ag2
ag7
ag4
ag2
ag2
ag2
ag3
ag1
ag2
ag3
ag3
ag3
ag5
ag2
ag2
ag3
ag3
ag1
ag3
ag2
ag4
ag2
ag6
ag3
ag1
ag2
ag2
ag1
ag1
ag3
ag3
ag3
ag3
ag2
ag5
ag7
ag3
ag2
ag3
ag7
ag1
ag4
ag3
ag3
ag4
ag3
ag4
ag3
ag2
ag4
ag4
ag3
ag2
ag4
ag1
ag3
ag2
ag3
ag3
ag3
ag2
ag2
ag3
ag3
ag3
ag3
ag2
ag3
ag3
ag3
ag2
ag3
ag3
ag4
ag2
ag1
ag1
ag1
ag1
ag2
ag1
ag2
ag3
ag3
ag3
ag6
ag2
ag1
ag2
ag7
ag3
ag1
ag3
ag3
ag4
ag3
ag2
ag2
ag3
ag3
ag3
ag3
ag3
ag4
ag3
ag1
ag4
ag4
ag3
ag7
ag1
ag7
ag3
ag6
ag4
ag4
ag3
ag4
ag1
ag3
ag2
ag2
ag1
ag2
ag7
ag3
ag3
ag2
ag1
ag4
ag4
ag1
ag3
ag3
ag3
ag5
ag3
ag3
ag4
ag4
ag4
ag3
ag4
ag1
ag1
ag4
ag1
ag4
ag3
ag3
ag4
ag3
ag4
ag4
ag3
ag3
ag7
ag3
ag3
ag1
ag3
ag5
ag3
ag3
ag3
ag1
ag1
ag1
ag4
ag4
ag3
ag3
ag3
ag3
ag1
ag6
ag1
ag4
ag3
ag2
ag3
ag3
ag2
ag1
ag3
ag1
ag3
ag7
ag3
ag3
ag3
ag4
ag3
ag1
ag4
ag2
ag3
ag2
ag3
ag1
ag1
ag3
ag1
ag3
ag6
ag1
ag3
ag1
ag2
ag3
ag4
ag3
ag3
ag1
ag6
ag1
ag3
ag3
ag3
ag3
ag1
ag4
ag3
ag3
ag3
ag4
ag3
ag3
ag3
ag3
ag3
ag3
ag3
ag3
ag3
ag1
ag3
ag4
ag3
ag3
ag2
ag3
ag3
ag1
ag2
ag3
ag2
ag1
ag3
ag3
ag4
ag3
ag6
ag3
ag1
ag3
ag6
ag1
ag3
ag3
ag3
ag1
ag1
ag4
ag1
ag3
ag3
ag3
ag3
ag3
ag3
ag3
ag3
ag3
ag4
ag3
ag4
ag3
ag1
ag1
ag3
ag1
ag4
ag4
ag3
ag2
ag4
ag3
ag4
ag3
ag3
ag4
ag3
ag3
ag3
ag1
ag3
ag7
ag4
ag4
ag5
ag3
ag3
ag3
ag2
ag3
ag4
ag2
ag2
ag4
ag4
ag3
ag3
ag2
ag4
ag3
ag8
ag3
ag2
ag4
ag1
ag2
ag6
ag3
ag4
ag3
ag3
ag3
ag4
ag1
ag5
ag7
ag3
ag4
ag2
ag3
ag3
ag3
ag4
ag3
ag3
ag3
ag6
ag4
ag2
ag3
ag7
ag4
ag4
ag3
ag3
ag3
ag3
ag4
ag3
ag1
ag1
ag2
ag3
ag5
ag6
ag3
ag3
ag6
ag2
ag3
ag4
ag4
ag2
ag3
ag4
ag3
ag2
ag3
ag3
ag4
ag4
ag2
ag3
ag3
ag2
ag3
ag2
ag3
ag1
ag4
ag3
ag3
ag5
ag3
ag3
ag1
ag2
ag2
ag4
ag3
ag3
ag3
ag3
ag4
ag3
ag5
ag2
ag3
ag3
ag3
ag4
ag3
ag2
ag1
ag3
ag5
ag4
ag4
ag3
ag2
ag3
ag3
ag3
ag5
ag4
ag4
ag3
ag2
ag6
ag7
ag6
ag3
ag3
ag2
ag3
ag3
ag8
ag1
ag2
ag3
ag4
ag2
ag3
ag2
ag4
ag2
ag3
ag3
ag3
ag3
ag1
ag3
ag4
ag4
ag1
ag1
ag4
ag2
ag2
ag3
ag3
ag3
ag3
ag3
ag3
ag3
ag7
ag3
ag4
ag3
ag3
ag2
ag3
ag3
ag3
ag3
ag1
ag4
ag7
ag3
ag3
ag3
ag3
ag2
ag2
ag3
ag3
ag1
ag2
ag2
ag2
ag2
ag3
ag4
ag2
ag3
ag3
ag3
ag2
ag5
ag1
ag1
ag1
ag3
ag4
ag3
ag3
ag2
ag3
ag4
ag3
ag3
ag1
ag4
ag3
ag7
ag4
ag3
ag2
ag1
ag4
ag3
ag3
ag7
ag2
ag3
ag4
ag3
ag3
ag3
ag2
ag3
ag3
ag3
ag1
ag1
ag3
ag4
ag4
ag2
ag4
ag3
ag3
ag7
ag2
ag4
ag3
ag3
ag3
ag5
ag2
ag3
ag4
ag4
ag3
ag1
ag3
ag6
ag2
ag1
ag3
ag3
ag7
ag1
ag3
ag1
ag4
ag1
ag7
ag5
ag4
ag7
ag2
ag3
ag3
ag3
ag1
ag3
ag3
ag3
ag3
ag3
ag3
ag3
ag3
ag2
ag4
ag7
ag4
ag3
ag5
ag7
ag3
ag3
ag3
ag4
ag3
ag1
ag2
ag1
ag3
ag3
ag3
ag5
ag3
ag1
ag2
ag3
ag3
ag2
ag3
ag3
ag3
ag2
ag3
ag4
ag4
ag3
ag4
ag2
ag1
ag3
ag1
ag3
ag3
ag7
ag3
ag3
ag2
ag3
ag2
ag1
ag4
ag3
ag2
ag3
ag7
ag4
ag4
ag3
ag4
ag3
ag3
ag3
ag2
ag3
ag1
ag1
ag3
ag4
ag7
ag1
ag3
ag3
ag3
ag6
ag1
ag4
ag3
ag3
ag1
ag7
ag7
ag2
ag2
ag3
ag3
ag4
ag3
ag2
ag2
ag2
ag3
ag2
ag3
ag5
ag1
ag3
ag3
ag2
ag3
ag4
ag4
ag2
ag2
ag3
ag3
ag2
ag3
ag3
ag2
ag2
ag2
ag3
ag1
ag3
ag3
ag3
ag3
ag3
ag2
ag2
ag3
ag7
ag3
ag2
ag3
ag2
ag3
ag3
ag2
ag2
ag1
ag7
ag1
ag3
ag3
ag1
ag3
ag3
ag3
ag2
ag4
ag3
ag3
ag1
ag1
ag5
ag3
ag3
ag4
ag4
ag3
ag3
ag3
ag2
ag4
ag3
ag4
ag8
ag3
ag3
ag3
ag2
ag2
ag4
ag1
ag2
ag1
ag2
ag3
ag2
ag1
ag5
ag7
ag2
ag3
ag6
ag1
ag3
ag1
ag1
ag3
ag3
ag3
ag3
ag3
ag2
ag4
ag1
ag3
ag4
ag3
ag3
ag2
ag2
ag4
ag2
ag4
ag4
ag3
ag3
ag3
ag5
ag4
ag3
ag3
ag3
ag3
ag3
ag4
ag4
ag3
ag3
ag4
ag3
ag3
ag3
ag3
ag4
ag6
ag3
ag5
ag1
ag3
ag4
ag4
ag3
ag3
ag1
ag2
ag2
ag4
ag7
ag3
ag3
ag3
ag3
ag6
ag1
ag4
ag2
ag4
ag3
ag3
ag3
ag1
ag3
ag1
ag3
ag3
ag3
ag4
ag3
ag3
ag3
ag4
ag3
ag3
ag4
ag3
ag1
ag3
ag3
ag1
ag3
ag1
ag4
ag3
ag3
ag3
ag3
ag7
ag1
ag8
ag2
ag3
ag4
ag3
ag3
ag1
ag3
ag7
ag3
ag3
ag2
ag3
ag3
ag3
ag3
ag3
ag3
ag7
ag3
ag3
ag4
ag2
ag3
ag2
ag3
ag3
ag4
ag3
ag1
ag3
ag3
ag5
ag3
ag3
ag6
ag3
ag2
ag3
ag3
ag3
ag4
ag3
ag4
ag3
ag3
ag3
ag4
ag2
ag3
ag2
ag1
ag3
ag3
ag3
ag4
ag1
ag3
ag2
ag3
ag7
ag3
ag3
ag4
ag7
ag3
ag3
ag2
ag4
ag3
ag3
ag3
ag5
ag5
ag2
ag2
ag8
ag3
ag1
ag3
ag3
ag4
ag3
ag3
ag4
ag3
ag1
ag6
ag3
ag2
ag3
ag1
ag5
ag1
ag2
ag3
ag3
ag3
ag2
ag3
ag4
ag5
ag1
ag5
ag3
ag3
ag3
ag3
ag4
ag2
ag4
ag3
ag1
ag3
ag3
ag3
ag4
ag4
ag3
ag3
ag2
ag4
ag3
ag2
ag3
ag3
ag2
ag1
ag3
ag3
ag3
ag1
ag3
ag3
ag3
ag2
ag3
ag4
ag4
ag3
ag1
ag4
ag1
ag3
ag1
ag2
ag1
ag4
ag4
ag3
ag3
ag3
ag3
ag3
ag1
ag2
ag2
ag3
ag2
ag3
ag2
ag2
ag3
ag3
ag1
ag3
ag1
ag1
ag4
ag3
ag3
ag3
ag4
ag2
ag6
ag4
ag3
ag3
ag4
ag3
ag2
ag3
ag3
ag3
ag2
ag1
ag1
ag4
ag3
ag3
ag5
ag3
ag4
ag3
ag3
ag1
ag2
ag2
ag3
ag7
ag4
ag1
ag4
ag1
ag2
ag3
ag3
ag3
ag3
ag3
ag1
ag6
ag3
ag4
ag4
ag3
ag7
ag3
ag3
ag2
ag7
ag1
ag1
ag3
ag3
ag3
ag2
ag2
ag2
ag1
ag4
ag5
ag2
ag3
ag3
ag3
ag2
ag3
ag2
ag4
ag4
ag2
ag4
ag4
ag4
ag3
ag3
ag3
ag1
ag3
ag3
ag4
ag3
ag7
ag4
ag4
ag1
ag5
ag2
ag1
ag3
ag3
ag3
ag1
ag3
ag4
ag3
ag2
ag3
ag3
ag3
ag3
ag3
ag3
ag3
ag3
ag2
ag3
ag3
ag4
ag3
ag2
ag2
ag3
ag3
ag2
ag6
ag3
ag5
ag3
ag2
ag3
ag3
ag2
ag3
ag1
ag3
ag3
ag3
ag1
ag8
ag3
ag3
ag1
ag5
ag2
ag1
ag3
ag6
ag3
ag1
ag3
ag4
ag2
ag3
ag3
ag2
ag3
ag2
ag3
ag1
ag3
ag3
ag3
ag3
ag2
ag4
ag3
ag1
ag4
ag3
ag2
ag5
ag3
ag3
ag3
ag2
ag1
ag3
ag3
ag1
ag3
ag2
ag1
ag7
ag3
ag3
ag4
ag3
ag4
ag7
ag3
ag4
ag2
ag4
ag5
ag1
ag2
ag1
ag1
ag3
ag3
ag3
ag3
ag3
ag3
ag2
ag1
ag4
ag2
ag3
ag5
ag4
ag1
ag1
ag3
ag6
ag3
ag4
ag5
ag3
ag4
ag7
ag2
ag1
ag2
ag1
ag2
ag3
ag6
ag2
ag1
ag3
ag4
ag4
ag3
ag1
ag3
ag3
ag3
ag2
ag3
ag3
ag3
ag3
ag3
ag1
ag4
ag3
ag3
ag2
ag3
ag3
ag1
ag1
ag7
ag3
ag1
ag3
ag2
ag1
ag1
ag3
ag7
ag3
ag4
ag4
ag1
ag7
ag3
ag3
ag3
ag3
ag3
ag2
ag7
ag2
ag2
ag1
ag7
ag4
ag3
ag2
ag1
ag2
ag2
ag4
ag4
ag3
ag1
ag3
ag3
ag2
ag2
ag7
ag4
ag3
ag1
ag4
ag4
ag4
ag4
ag3
ag3
ag2
ag3
ag3
ag7
ag2
ag1
ag3
ag2
ag1
ag1
ag3
ag4
ag2
ag2
ag4
ag1
ag3
ag3
ag2
ag1
ag2
ag3
ag4
ag3
ag3
ag4
ag3
ag6
ag4
ag3
ag8
ag3
ag1
ag3
ag3
ag1
ag1
ag2
ag3
ag3
ag1
ag3
ag4
ag2
ag6
ag2
ag3
ag3
ag1
ag3
ag4
ag3
ag4
ag3
ag3
ag4
ag3
ag3
ag4
ag4
ag3
ag1
ag2
ag2
ag3
ag2
ag2
ag6
ag7
ag2
ag2
ag2
ag3
ag2
ag3
ag1
ag3
ag1
ag4
ag1
ag5
ag1
ag3
ag3
ag4
ag3
ag2
ag2
ag2
ag1
ag3
ag4
ag1
ag1
ag3
ag1
ag7
ag2
ag3
ag2
ag3
ag7
ag4
ag3
ag2
ag3
ag2
ag1
ag2
ag3
ag2
ag4
ag2
ag1
ag3
ag4
ag3
ag3
ag3
ag6
ag4
ag2
ag3
ag4
ag5
ag3
ag3
ag1
ag1
ag3
ag3
ag4
ag3
ag1
ag3
ag1
ag4
ag3
ag3
ag3
ag3
ag3
ag3
ag2
ag2
ag4
ag3
ag2
ag2
ag3
ag3
ag3
ag3
ag5
ag1
ag3
ag3
ag4
ag2
ag3
ag3
ag1
ag3
ag4
ag3
ag2
ag2
ag3
ag3
ag3
ag3
ag1
ag4
ag2
ag3
ag3
ag4
ag2
ag4
ag2
ag3
ag3
ag3
ag2
ag3
ag3
ag4
ag5
ag3
ag1
ag2
ag4
ag3
ag3
ag4
ag3
ag4
ag5
ag7
ag4
ag3
ag1
ag1
ag3
ag3
ag2
ag3
ag3
ag4
ag3
ag3
ag4
ag7
ag2
ag8
ag1
ag3
ag3
ag4
ag3
ag3
ag3
ag3
ag6
ag3
ag3
ag3
ag2
ag3
ag4
ag3
ag4
ag3
ag3
ag2
ag3
ag1
ag3
ag3
ag3
ag4
ag3
ag2
ag3
ag2
ag1
ag3
ag2
ag3
ag6
ag4
ag2
ag3
ag3
ag2
ag7
ag7
ag1
ag7
ag2
ag3
ag3
ag3
ag3
ag5
ag3
ag3
ag4
ag1
ag3
ag3
ag4
ag4
ag2
ag5
ag3
ag1
ag3
ag1
ag3
ag3
ag4
ag3
ag3
ag3
ag3
ag2
ag2
ag3
ag4
ag3
ag4
ag4
ag1
ag4
ag1
ag3
ag3
ag3
ag3
ag1
ag3
ag3
ag3
ag2
ag4
ag2
ag3
ag4
ag7
ag3
ag7
ag2
ag6
ag4
ag3
ag7
ag3
ag2
ag3
ag2
ag3
ag2
ag3
ag2
ag2
ag3
ag2
ag4
ag2
ag2
ag4
ag3
ag4
ag3
ag1
ag3
ag4
ag1
ag1
ag3
ag3
ag3
ag1
ag4
ag3
ag7
ag2
ag3
ag4
ag3
ag1
ag3
ag3
ag1
ag2
ag5
ag3
ag7
ag2
ag3
ag4
ag4
ag3
ag1
ag3
ag2
ag2
ag3
ag2
ag4
ag3
ag2
ag3
ag3
ag3
ag3
ag3
ag3
ag4
ag3
ag3
ag2
ag3
ag3
ag3
ag3
ag1
ag6
ag3
ag1
ag7
ag3
ag3
ag7
ag3
ag3
ag1
ag3
ag3
ag4
ag3
ag1
ag3
ag1
ag3
ag3
ag3
ag5
ag3
ag3
ag3
ag4
ag1
ag1
ag3
ag3
ag5
ag4
ag3
ag2
ag3
ag4
ag2
ag2
ag3
ag3
ag1
ag3
ag3
ag3
ag3
ag5
ag4
ag3
ag3
ag3
ag3
ag3
ag2
ag2
ag3
ag3
ag1
ag1
ag4
ag3
ag1
ag4
ag6
ag1
ag3
ag1
ag3
ag2
ag3
ag3
ag2
ag3
ag3
ag3
ag2
ag4
ag2
ag3
ag4
ag7
ag2
ag2
ag1
ag2
ag2
ag3
ag4
ag3
ag3
ag1
ag3
ag3
ag1
ag4
ag4
ag3
ag2
ag3
ag4
ag1
ag4
ag2
ag3
ag1
ag1
ag2
ag4
ag1
ag3
ag2
ag4
ag3
ag1
ag3
ag4
ag2
ag4
ag1
ag2
ag3
ag3
ag2
ag1
ag2
ag1
ag3
ag6
ag3
ag3
ag1
ag1
ag1
ag3
ag3
ag3
ag2
ag4
ag3
ag3
ag1
ag3
ag2
ag3
ag4
ag3
ag3
ag3
ag3
ag5
ag2
ag4
ag1
ag3
ag3
ag3
ag3
ag3
ag6
ag5
ag4
ag3
ag3
ag3
ag3
ag3
ag3
ag3
ag3
ag7
ag1
ag1
ag3
ag3
ag3
ag2
ag1
ag2
ag4
ag3
ag3
ag3
ag1
ag3
ag2
ag3
ag1
ag7
ag2
ag2
ag4
ag1
ag1
ag1
ag3
ag4
ag3
ag4
ag3
ag1
ag3
ag3
ag1
ag3
ag3
ag1
ag3
ag4
ag3
ag4
ag3
ag3
ag4
ag7
ag4
ag6
ag3
ag4
ag2
ag3
ag3
ag4
ag4
ag4
ag3
ag1
ag2
ag6
ag1
ag1
ag8
ag3
ag3
ag2
ag3
ag1
ag2
ag7
ag3
ag2
ag3
ag1
ag2
ag4
ag3
ag3
ag3
ag4
ag3
ag3
ag1
ag2
ag5
ag3
ag5
ag3
ag3
ag2
ag7
ag3
ag3
ag1
ag1
ag3
ag2
ag5
ag2
ag4
ag1
ag2
ag3
ag2
ag4
ag4
ag3
ag3
ag4
ag3
ag3
ag1
ag3
ag2
ag4
ag3
ag4
ag1
ag3
ag4
ag3
ag3
ag3
ag2
ag4
ag5
ag7
ag6
ag2
ag5
ag2
ag2
ag3
ag1
ag4
ag1
ag4
ag3
ag4
ag1
ag4
ag2
ag3
ag1
ag3
ag4
ag3
ag3
ag1
ag4
ag4
ag3
ag3
ag3
ag3
ag3
ag3
ag2
ag2
ag3
ag3
ag2
ag1
ag3
ag4
ag3
ag3
ag3
ag3
ag6
ag4
ag3
ag3
ag3
ag3
ag7
ag6
ag2
ag5
ag4
ag3
ag1
ag1
ag4
ag2
ag2
ag4
ag4
ag5
ag3
ag3
ag1
ag1
ag3
ag1
ag3
ag3
ag2
ag1
ag1
ag2
ag7
ag3
ag3
ag1
ag3
ag7
ag1
ag3
ag1
ag2
ag3
ag2
ag4
ag3
ag3
ag3
ag4
ag3
ag1
ag1
ag4
ag3
ag5
ag1
ag3
ag1
ag4
ag4
ag4
ag7
ag3
ag1
ag3
ag3
ag1
ag3
ag2
ag3
ag4
ag3
ag7
ag4
ag4
ag3
ag1
ag7
ag2
ag4
ag3
ag7
ag5
ag1
ag3
ag2
ag3
ag5
ag4
ag2
ag3
ag3
ag2
ag2
ag3
ag3
ag3
ag3
ag3
ag1
ag3
ag7
ag2
ag4
ag2
ag3
ag1
ag2
ag3
ag3
ag4
ag3
ag3
ag8
ag7
ag3
ag1
ag2
ag1
ag4
ag3
ag2
ag2
ag3
ag3
ag3
ag1
ag3
ag3
ag2
ag4
ag7
ag1
ag3
ag4
ag3
ag3
ag2
ag2
ag7
ag3
ag3
ag1
ag1
ag1
ag3
ag4
ag3
ag3
ag2
ag1
ag4
ag3
ag7
ag3
ag3
ag3
ag3
ag3
ag5
ag4
ag4
ag3
ag2
ag1
ag1
ag2
ag2
ag1
ag4
ag3
ag3
ag3
ag2
ag3
ag4
ag3
ag4
ag3
ag1
ag4
ag4
ag5
ag3
ag3
ag2
ag3
ag7
ag3
ag7
ag1
ag6
ag3
ag3
ag3
ag3
ag7
ag7
ag4
ag3
ag3
ag4
ag2
ag2
ag7
ag4
ag3
ag3
ag3
ag3
ag1
ag4
ag3
ag3
ag2
ag3
ag2
ag3
ag3
ag2
ag3
ag1
ag3
ag2
ag2
ag3
ag2
ag3
ag1
ag2
ag3
ag2
ag3
ag3
ag4
ag3
ag3
ag2
ag3
ag4
ag3
ag1
ag2
ag3
ag3
ag2
ag3
ag4
ag3
ag2
ag4
ag3
ag2
ag3
ag3
ag3
ag6
ag3
ag3
ag3
ag3
ag2
ag1
ag1
ag2
ag3
ag3
ag2
ag4
ag3
ag2
ag4
ag3
ag2
ag7
ag3
ag3
ag4
ag3
ag3
ag2
ag3
ag2
ag3
ag4
ag3
ag3
ag3
ag3
ag2
ag3
ag3
ag1
ag4
ag4
ag3
ag3
ag4
ag4
ag3
ag5
ag1
ag1
ag3
ag6
ag3
ag2
ag3
ag2
ag3
ag3
ag3
ag4
ag3
ag7
ag1
ag2
ag3
ag3
ag1
ag3
ag2
ag3
ag3
ag4
ag3
ag3
ag2
ag3
ag3
ag3
ag1
ag8
ag2
ag3
ag4
ag1
ag5
ag7
ag2
ag3
ag2
ag2
ag2
ag3
ag4
ag2
ag1
ag7
ag3
ag3
ag1
ag3
ag6
ag3
ag2
ag4
ag2
ag3
ag2
ag3
ag2
ag1
ag2
ag2
ag2
ag1
ag3
ag3
ag1
ag2
ag3
ag4
ag3
ag1
ag2
ag3
ag3
ag1
ag4
ag2
ag5
ag3
ag1
ag4
ag3
ag3
ag8
ag3
ag3
ag1
ag3
ag2
ag3
ag4
ag3
ag3
ag6
ag1
ag2
ag2
ag3
ag3
ag3
ag3
ag4
ag3
ag3
ag3
ag3
ag3
ag2
ag4
ag5
ag3
ag3
ag3
ag3
ag3
ag3
ag4
ag4
ag3
ag4
ag7
ag3
ag4
ag3
ag4
ag3
ag1
ag3
ag3
ag4
ag3
ag2
ag3
ag3
ag3
ag6
ag1
ag4
ag3
ag7
ag3
ag3
ag3
ag3
ag3
ag6
ag3
ag3
ag6
ag7
ag3
ag3
ag3
ag3
ag4
ag3
ag2
ag2
ag1
ag3
ag3
ag3
ag3
ag4
ag2
ag1
ag3
ag4
ag4
ag3
ag3
ag3
ag3
ag1
ag2
ag2
ag4
ag1
ag4
ag3
ag3
ag2
ag1
ag3
ag1
ag3
ag3
ag3
ag3
ag3
ag3
ag1
ag2
ag3
ag7
ag2
ag8
ag3
ag4
ag2
ag2
ag3
ag1
ag1
ag2
ag4
ag2
ag1
ag3
ag4
ag2
ag2
ag1
ag3
ag1
ag3
ag2
ag3
ag1
ag3
ag1
ag3
ag2
ag4
ag3
ag3
ag3
ag3
ag3
ag2
ag3
ag4
ag4
ag3
ag3
ag3
ag5
ag2
ag1
ag3
ag3
ag3
ag2
ag2
ag3
ag3
ag2
ag6
ag3
ag2
ag3
ag2
ag2
ag1
ag2
ag3
ag1
ag5
ag3
ag3
ag3
ag3
ag6
ag4
ag1
ag3
ag3
ag3
ag1
ag2
ag3
ag2
ag1
ag2
ag3
ag3
ag1
ag4
ag7
ag1
ag1
ag3
ag2
ag3
ag2
ag4
ag3
ag7
ag4
ag3
ag3
ag3
ag3
ag4
ag3
ag4
ag4
ag6
ag3
ag2
ag2
ag3
ag2
ag3
ag2
ag1
ag3
ag5
ag2
ag4
ag3
ag2
ag3
ag6
ag4
ag3
ag4
ag4
ag3
ag3
ag4
ag1
ag1
ag3
ag1
ag2
ag4
ag4
ag2
ag3
ag4
ag3
ag5
ag1
ag3
ag4
ag3
ag7
ag4
ag3
ag5
ag3
ag1
ag3
ag1
ag3
ag1
ag3
ag3
ag3
ag2
ag3
ag3
ag4
ag3
ag1
ag3
ag3
ag3
ag6
ag2
ag3
ag3
ag3
ag3
ag3
ag1
ag3
ag3
ag4
ag2
ag2
ag5
ag2
ag3
ag3
ag3
ag3
ag3
ag2
ag3
ag3
ag3
ag4
ag3
ag4
ag1
ag3
ag2
ag3
ag3
ag4
ag3
ag3
ag3
ag3
ag2
ag3
ag7
ag3
ag2
ag3
ag3
ag1
ag3
ag3
ag4
ag1
ag1
ag4
ag2
ag3
ag3
ag3
ag3
ag1
ag3
ag4
ag1
ag3
ag6
ag3
ag3
ag2
ag1
ag3
ag3
ag3
ag7
ag3
ag2
ag1
ag3
ag2
ag3
ag3
ag3
ag2
ag2
ag2
ag3
ag4
ag1
ag3
ag2
ag3
ag3
ag3
ag4
ag3
ag3
ag3
ag3
ag3
ag3
ag4
ag3
ag3
ag4
ag2
ag3
ag6
ag1
ag5
ag7
ag1
ag3
ag3
ag3
ag1
ag3
ag2
ag3
ag1
ag3
ag4
ag3
ag4
ag4
ag3
ag4
ag3
ag1
ag1
ag3
ag5
ag3
ag5
ag2
ag4
ag1
ag3
ag4
ag6
ag3
ag3
ag3
ag3
ag1
ag2
ag4
ag4
ag3
ag3
ag1
ag2
ag3
ag1
ag1
ag3
ag3
ag4
ag1
ag3
ag4
ag3
ag2
ag3
ag2
ag3
ag3
ag3
ag3
ag3
ag2
ag3
ag1
ag3
ag1
ag3
ag4
ag4
ag3
ag1
ag1
ag1
ag4
ag7
ag3
ag4
ag3
ag3
ag1
ag1
ag3
ag3
ag2
ag3
ag2
ag2
ag4
ag3
ag3
ag3
ag3
ag4
ag3
ag3
ag3
ag3
ag4
ag1
ag2
ag3
ag3
ag2
ag4
ag3
ag4
ag3
ag7
ag3
ag4
ag3
ag3
ag2
ag3
ag2
ag3
ag4
ag3
ag4
ag2
ag2
ag3
ag7
ag3
ag4
ag3
ag3
ag3
ag5
ag1
ag1
ag2
ag4
ag3
ag3
ag3
ag4
ag4
ag3
ag1
ag3
ag2
ag1
ag2
ag1
ag1
ag3
ag3
ag3
ag2
ag3
ag1
ag4
ag5
ag3
ag2
ag1
ag4
ag3
ag7
ag3
ag3
ag5
ag2
ag3
ag1
ag1
ag2
ag2
ag2
ag7
ag1
ag3
ag3
ag2
ag2
ag2
ag2
ag7
ag3
ag5
ag3
ag4
ag4
ag3
ag2
ag4
ag3
ag3
ag3
ag3
ag3
ag3
ag1
ag2
ag3
ag2
ag1
ag4
ag5
ag3
ag3
ag4
ag4
ag1
ag4
ag2
ag1
ag3
ag1
ag3
ag2
ag2
ag1
ag4
ag2
ag2
ag3
ag6
ag2
ag2
ag1
ag3
ag1
ag2
ag1
ag3
ag2
ag3
ag4
ag3
ag3
ag3
ag4
ag1
ag3
ag1
ag3
ag3
ag2
ag3
ag2
ag3
ag4
ag3
ag3
ag3
ag4
ag2
ag3
ag3
ag4
ag1
ag5
ag3
ag2
ag3
ag4
ag4
ag4
ag3
ag4
ag3
ag4
ag4
ag4
ag4
ag3
ag3
ag3
ag4
ag3
ag3
ag7
ag2
ag1
ag2
ag5
ag3
ag3
ag3
ag1
ag3
ag1
ag4
ag2
ag1
ag2
ag3
ag3
ag2
ag2
ag3
ag2
ag3
ag4
ag4
ag3
ag1
ag3
ag3
ag1
ag4
ag1
ag2
ag4
ag3
ag3
ag3
ag2
ag3
ag3
ag3
ag3
ag2
ag4
ag1
ag3
ag1
ag1
ag4
ag3
ag3
ag7
ag5
ag8
ag3
ag3
ag2
ag3
ag3
ag3
ag2
ag4
ag3
ag4
ag2
ag1
ag3
ag4
ag1
ag3
ag3
ag2
ag3
ag3
ag2
ag1
ag3
ag7
ag3
ag3
ag2
ag2
ag1
ag1
ag1
ag4
ag4
ag3
ag2
ag3
ag3
ag3
ag3
ag2
ag4
ag1
ag3
ag2
ag2
ag1
ag3
ag3
ag3
ag3
ag1
ag3
ag1
ag1
ag3
ag4
ag1
ag3
ag2
ag3
ag3
ag1
ag3
ag3
ag5
ag1
ag4
ag3
ag4
ag2
ag2
ag3
ag3
ag3
ag3
ag8
ag3
ag2
ag3
ag2
ag3
ag7
ag6
ag3
ag1
ag3
ag1
ag3
ag2
ag2
ag3
ag2
ag3
ag3
ag3
ag3
ag4
ag3
ag2
ag3
ag2
ag3
ag3
ag3
ag4
ag4
ag3
ag3
ag2
ag3
ag3
ag4
ag3
ag4
ag3
ag3
ag3
ag3
ag2
ag3
ag3
ag3
ag2
ag4
ag3
ag3
ag3
ag4
ag2
ag3
ag3
ag2
ag7
ag7
ag5
ag2
ag1
ag2
ag4
ag3
ag5
ag3
ag2
ag6
ag1
ag8
ag1
ag3
ag2
ag2
ag4
ag3
ag3
ag1
ag2
ag4
ag3
ag3
ag3
ag3
ag4
ag3
ag7
ag3
ag4
ag4
ag4
ag3
ag3
ag5
ag1
ag1
ag3
ag3
ag3
ag3
ag1
ag3
ag3
ag4
ag1
ag3
ag3
ag2
ag3
ag1
ag1
ag3
ag2
ag3
ag2
ag1
ag3
ag4
ag7
ag1
ag1
ag3
ag2
ag3
ag3
ag1
ag2
ag3
ag2
ag3
ag3
ag1
ag3
ag1
ag3
ag3
ag3
ag4
ag3
ag3
ag4
ag3
ag3
ag4
ag3
ag4
ag2
ag2
ag1
ag3
ag2
ag1
ag2
ag5
ag2
ag1
ag7
ag5
ag4
ag3
ag3
ag3
ag1
ag3
ag2
ag8
ag4
ag4
ag3
ag1
ag5
ag3
ag3
ag3
ag2
ag3
ag1
ag1
ag4
ag1
ag7
ag2
ag2
ag3
ag3
ag4
ag1
ag1
ag4
ag7
ag3
ag4
ag1
ag4
ag3
ag4
ag4
ag2
ag4
ag3
ag3
ag2
ag4
ag1
ag2
ag3
ag3
ag2
ag2
ag1
ag3
ag1
ag3
ag2
ag8
ag2
ag5
ag1
ag3
ag1
ag3
ag2
ag3
ag3
ag3
ag2
ag3
ag3
ag3
ag1
ag4
ag3
ag3
ag4
ag1
ag3
ag1
ag3
ag3
ag1
ag4
ag3
ag2
ag3
ag3
ag2
ag3
ag2
ag2
ag2
ag3
ag6
ag3
ag1
ag3
ag3
ag3
ag3
ag2
ag3
ag2
ag4
ag4
ag4
ag4
ag5
ag4
ag1
ag3
ag3
ag3
ag1
ag1
ag1
ag3
ag3
ag1
ag3
ag3
ag1
ag3
ag1
ag3
ag2
ag3
ag3
ag2
ag3
ag3
ag4
ag3
ag1
ag4
ag3
ag3
ag2
ag2
ag4
ag7
ag3
ag4
ag3
ag3
ag3
ag1
ag4
ag3
ag3
ag1
ag1
ag4
ag3
ag3
ag2
ag3
ag1
ag4
ag3
ag4
ag4
ag4
ag3
ag4
ag4
ag4
ag3
ag3
ag1
ag1
ag3
ag3
ag3
ag3
ag2
ag3
ag1
ag7
ag4
ag4
ag3
ag3
ag3
ag3
ag3
ag1
ag1
ag3
ag3
ag2
ag2
ag3
ag3
ag1
ag2
ag4
ag3
ag4
ag2
ag3
ag2
ag1
ag3
ag3
ag3
ag3
ag2
ag3
ag3
ag3
ag7
ag3
ag3
ag2
ag3
ag3
ag3
ag4
ag2
ag4
ag3
ag3
ag3
ag4
ag7
ag1
ag2
ag1
ag3
ag1
ag2
ag4
ag2
ag3
ag2
ag5
ag6
ag4
ag3
ag3
ag6
ag7
ag4
ag4
ag4
ag2
ag3
ag2
ag3
ag1
ag3
ag4
ag4
ag3
ag3
ag5
ag4
ag6
ag3
ag8
ag3
ag2
ag4
ag1
ag1
ag3
ag3
ag3
ag3
ag3
ag2
ag3
ag2
ag3
ag3
ag3
ag4
ag1
ag3
ag3
ag3
ag1
ag2
ag3
ag4
ag3
ag5
ag3
ag5
ag1
ag1
ag5
ag3
ag3
ag6
ag3
ag3
ag3
ag3
ag3
ag3
ag3
ag4
ag2
ag3
ag3
ag5
ag3
ag4
ag3
ag3
ag3
ag2
ag7
ag7
ag3
ag3
ag3
ag4
ag4
ag3
ag4
ag1
ag4
ag3
ag1
ag1
ag3
ag2
ag2
ag3
ag6
ag6
ag2
ag3
ag3
ag1
ag2
ag1
ag3
ag3
ag3
ag1
ag1
ag6
ag3
ag3
ag3
ag6
ag1
ag3
ag4
ag4
ag3
ag1
ag5
ag3
ag1
ag3
ag3
ag4
ag3
ag1
ag4
ag1
ag1
ag1
ag3
ag1
ag6
ag1
ag4
ag2
ag1
ag1
ag2
ag3
ag3
ag3
ag7
ag1
ag3
ag3
ag3
ag3
ag3
ag3
ag3
ag3
ag1
ag3
ag4
ag7
ag3
ag3
ag7
ag3
ag3
ag1
ag3
ag2
ag6
ag2
ag2
ag1
ag3
ag3
ag7
ag3
ag2
ag2
ag4
ag2
ag2
ag2
ag1
ag4
ag4
ag2
ag3
ag3
ag4
ag3
ag1
ag7
ag4
ag1
ag4
ag3
ag2
ag4
ag3
ag3
ag1
ag3
ag3
ag3
ag3
ag4
ag2
ag4
ag2
ag1
ag3
ag4
ag1
ag1
ag3
ag1
ag3
ag4
ag3
ag3
ag3
ag3
ag4
ag3
ag3
ag1
ag4
ag2
ag5
ag2
ag3
ag3
ag4
ag2
ag3
ag2
ag3
ag4
ag3
ag3
ag1
ag3
ag1
ag7
ag4
ag3
ag2
ag3
ag3
ag4
ag5
ag2
ag4
ag2
ag1
ag3
ag1
ag3
ag3
ag3
ag3
ag1
ag3
ag2
ag2
ag3
ag2
ag4
ag3
ag1
ag3
ag5
ag3
ag3
ag3
ag4
ag3
ag4
ag3
ag1
ag8
ag2
ag3
ag1
ag2
ag3
ag3
ag4
ag4
ag2
ag3
ag2
ag2
ag1
ag7
ag6
ag4
ag2
ag2
ag3
ag7
ag2
ag4
ag3
ag5
ag6
ag1
ag2
ag4
ag3
ag4
ag7
ag3
ag3
ag4
ag1
ag1
ag1
ag3
ag3
ag3
ag2
ag3
ag1
ag3
ag1
ag3
ag1
ag4
ag4
ag1
ag2
ag3
ag3
ag1
ag6
ag1
ag2
ag3
ag1
ag2
ag3
ag3
ag3
ag1
ag2
ag1
ag3
ag3
ag3
ag3
ag3
ag7
ag2
ag4
ag2
ag7
ag7
ag4
ag5
ag4
ag3
ag1
ag4
ag3
ag3
ag2
ag3
ag3
ag6
ag3
ag3
ag1
ag3
ag7
ag5
ag4
ag4
ag2
ag1
ag2
ag1
ag2
ag1
ag1
ag3
ag1
ag1
ag4
ag3
ag6
ag4
ag3
ag4
ag1
ag4
ag2
ag3
ag4
ag2
ag3
ag2
ag3
ag1
ag3
ag3
ag3
ag3
ag3
ag3
ag3
ag3
ag4
ag3
ag4
ag3
ag4
ag3
ag3
ag3
ag3
ag3
ag1
ag1
ag3
ag1
ag3
ag3
ag3
ag3
ag3
ag3
ag2
ag3
ag4
ag3
ag4
ag3
ag1
ag3
ag1
ag3
ag4
ag1
ag3
ag4
ag2
ag3
ag1
ag3
ag3
ag3
ag3
ag3
ag3
ag2
ag5
ag3
ag2
ag3
ag3
ag3
ag2
ag3
ag2
ag4
ag4
ag4
ag3
ag2
ag2
ag4
ag2
ag4
ag3
ag3
ag3
ag4
ag3
ag3
ag3
ag3
ag3
ag2
ag3
ag3
ag3
ag1
ag4
ag2
ag4
ag3
ag4
ag4
ag1
ag2
ag1
ag3
ag3
ag1
ag3
ag3
ag3
ag3
ag1
ag4
ag3
ag1
ag3
ag3
ag3
ag2
ag3
ag3
ag2
ag3
ag8
ag3
ag3
ag3
ag3
ag1
ag3
ag3
ag4
ag3
ag3
ag3
ag3
ag1
ag7
ag3
ag7
ag3
ag2
ag3
ag7
ag1
ag7
ag3
ag1
ag3
ag3
ag3
ag3
ag1
ag3
ag3
ag3
ag3
ag3
ag3
ag3
ag3
ag3
ag1
ag3
ag4
ag1
ag1
ag3
ag1
ag5
ag1
ag5
ag4
ag4
ag1
ag3
ag2
ag3
ag3
ag2
ag7
ag3
ag3
ag3
ag1
ag3
ag1
ag3
ag3
ag4
ag1
ag3
ag2
ag4
ag3
ag3
ag2
ag1
ag3
ag2
ag2
ag4
ag3
ag4
ag7
ag3
ag3
ag3
ag3
ag3
ag1
ag3
ag2
ag3
ag2
ag3
ag1
ag4
ag3
ag3
ag4
ag3
ag3
ag3
ag3
ag3
ag6
ag2
ag6
ag3
ag3
ag3
ag4
ag3
ag3
ag3
ag2
ag2
ag2
ag3
ag2
ag4
ag4
ag3
ag3
ag1
ag3
ag3
ag3
ag7
ag2
ag1
ag4
ag2
ag3
ag3
ag3
ag2
ag3
ag1
ag1
ag1
ag3
ag4
ag1
ag3
ag3
ag3
ag1
ag2
ag4
ag3
ag4
ag3
ag4
ag3
ag4
ag2
ag1
ag3
ag3
ag2
ag3
ag3
ag3
ag1
ag3
ag3
ag3
ag3
ag2
ag7
ag1
ag3
ag7
ag1
ag3
ag2
ag4
ag2
ag4
ag2
ag3
ag4
ag2
ag2
ag6
ag2
ag3
ag4
ag2
ag4
ag3
ag3
ag3
ag1
ag4
ag3
ag4
ag3
ag3
ag4
ag3
ag1
ag1
ag4
ag1
ag2
ag7
ag2
ag4
ag3
ag2
ag2
ag7
ag7
ag3
ag3
ag3
ag1
ag3
ag5
ag1
ag3
ag4
ag1
ag2
ag3
ag4
ag4
ag4
ag2
ag1
ag3
ag1
ag4
ag4
ag5
ag4
ag1
ag3
ag2
ag4
ag2
ag3
ag2
ag2
ag3
ag1
ag2
ag2
ag3
ag3
ag3
ag3
ag2
ag3
ag1
ag8
ag1
ag3
ag3
ag3
ag2
ag3
ag1
ag3
ag3
ag2
ag3
ag3
ag1
ag3
ag4
ag3
ag6
ag4
ag3
ag3
ag4
ag3
ag3
ag3
ag1
ag4
ag3
ag3
ag4
ag3
ag2
ag1
ag1
ag3
ag2
ag4
ag1
ag4
ag3
ag4
ag1
ag2
ag5
ag3
ag7
ag3
ag2
ag4
ag4
ag3
ag1
ag7
ag2
ag3
ag3
ag1
ag5
ag2
ag4
ag4
ag3
ag3
ag3
ag3
ag3
ag1
ag3
ag1
ag3
ag1
ag2
ag3
ag1
ag3
ag3
ag1
ag1
ag5
ag3
ag1
ag1
ag3
ag1
ag3
ag5
ag3
ag3
ag2
ag2
ag3
ag3
ag1
ag7
ag3
ag3
ag3
ag4
ag2
ag4
ag1
ag4
ag3
ag5
ag1
ag3
ag3
ag4
ag1
ag3
ag2
ag3
ag3
ag4
ag1
ag1
ag7
ag3
ag3
ag3
ag4
ag1
ag4
ag3
ag3
ag1
ag2
ag3
ag3
ag3
ag2
ag1
ag4
ag3
ag4
ag2
ag7
ag2
ag8
ag1
ag3
ag3
ag3
ag4
ag3
ag1
ag4
ag1
ag4
ag3
ag2
ag4
ag3
ag1
ag4
ag3
ag7
ag3
ag3
ag2
ag1
ag3
ag4
ag3
ag3
ag3
ag4
ag1
ag3
ag1
ag4
ag3
ag4
ag3
ag3
ag1
ag3
ag3
ag3
ag3
ag3
ag6
ag3
ag2
ag7
ag3
ag3
ag3
ag4
ag3
ag4
ag3
ag1
ag2
ag3
ag3
ag7
ag2
ag7
ag4
ag6
ag3
ag1
ag3
ag3
ag4
ag1
ag2
ag2
ag3
ag3
ag6
ag3
ag1
ag3
ag3
ag7
ag2
ag3
ag3
ag4
ag2
ag3
ag3
ag4
ag7
ag1
ag3
ag1
ag3
ag3
ag3
ag3
ag3
ag2
ag3
ag4
ag3
ag3
ag3
ag3
ag3
ag3
ag1
ag2
ag7
ag1
ag1
ag3
ag3
ag1
ag4
ag1
ag2
ag4
ag7
ag3
ag3
ag3
ag3
ag3
ag3
ag3
ag2
ag3
ag3
ag3
ag3
ag3
ag1
ag4
ag3
ag1
ag3
ag4
ag3
ag3
ag3
ag3
ag3
ag2
ag3
ag3
ag3
ag4
ag1
ag1
ag3
ag7
ag2
ag1
ag2
ag2
ag3
ag3
ag2
ag4
ag3
ag6
ag1
ag3
ag4
ag6
ag4
ag3
ag3
ag4
ag7
ag3
ag4
ag4
ag3
ag1
ag1
ag3
ag1
ag3
ag1
ag4
ag3
ag3
ag3
ag3
ag4
ag5
ag5
ag4
ag2
ag3
ag2
ag2
ag2
ag1
ag1
ag4
ag3
ag5
ag3
ag3
ag3
ag1
ag3
ag1
ag3
ag2
ag3
ag3
ag2
ag1
ag1
ag1
ag3
ag3
ag3
ag4
ag3
ag2
ag3
ag3
ag3
ag7
ag3
ag3
ag1
ag2
ag4
ag4
ag3
ag1
ag2
ag3
ag2
ag3
ag4
ag4
ag3
ag2
ag4
ag4
ag2
ag6
ag2
ag1
ag3
ag2
ag2
ag4
ag2
ag3
ag1
ag1
ag3
ag2
ag2
ag4
ag3
ag1
ag1
ag1
ag4
ag3
ag4
ag1
ag1
ag3
ag2
ag3
ag3
ag2
ag3
ag3
ag4
ag1
ag3
ag2
ag5
ag1
ag3
ag3
ag3
ag1
ag4
ag2
ag6
ag3
ag3
ag3
ag5
ag3
ag3
ag3
ag3
ag3
ag2
ag3
ag4
ag2
ag3
ag2
ag3
ag3
ag3
ag4
ag1
ag3
ag3
ag4
ag3
ag4
ag1
ag2
ag1
ag4
ag3
ag1
ag3
ag3
ag1
ag3
ag3
ag1
ag4
ag5
ag7
ag3
ag3
ag3
ag7
ag1
ag3
ag3
ag2
ag3
ag3
ag3
ag1
ag1
ag4
ag3
ag3
ag4
ag3
ag3
ag3
ag1
ag2
ag3
ag1
ag3
ag3
ag3
ag3
ag4
ag5
ag3
ag3
ag3
ag3
ag1
ag4
ag3
ag3
ag3
ag2
ag3
ag2
ag3
ag3
ag3
ag3
ag1
ag5
ag3
ag1
ag1
ag2
ag3
ag3
ag4
ag3
ag3
ag1
ag3
ag3
ag4
ag3
ag3
ag7
ag1
ag2
ag4
ag3
ag2
ag3
ag3
ag2
ag2
ag3
ag2
ag1
ag1
ag3
ag1
ag1
ag1
ag3
ag5
ag2
ag2
ag3
ag7
ag3
ag1
ag4
ag3
ag2
ag4
ag1
ag3
ag3
ag1
ag1
ag3
ag2
ag4
ag3
ag1
ag1
ag3
ag1
ag1
ag4
ag3
ag3
ag3
ag4
ag3
ag4
ag3
ag3
ag3
ag6
ag3
ag4
ag2
ag4
ag3
ag3
ag3
ag3
ag3
ag2
ag1
ag7
ag1
ag2
ag2
ag1
ag1
ag3
ag3
ag2
ag1
ag3
ag7
ag2
ag2
ag2
ag4
ag3
ag3
ag3
ag1
ag4
ag7
ag3
ag2
ag1
ag1
ag2
ag3
ag3
ag3
ag3
ag3
ag3
ag1
ag7
ag2
ag1
ag4
ag3
ag1
ag2
ag3
ag3
ag2
ag2
ag5
ag2
ag2
ag3
ag2
ag4
ag1
ag4
ag2
ag1
ag5
ag3
ag3
ag3
ag4
ag4
ag4
ag2
ag3
ag3
ag3
ag3
ag2
ag5
ag1
ag1
ag4
ag3
ag3
ag2
ag4
ag2
ag2
ag1
ag2
ag3
ag3
ag3
ag3
ag3
ag3
ag3
ag3
ag3
ag3
ag2
ag3
ag1
ag2
ag5
ag3
ag2
ag3
ag4
ag4
ag3
ag3
ag4
ag3
ag3
ag3
ag2
ag1
ag1
ag1
ag3
ag3
ag3
ag4
ag1
ag6
ag3
ag4
ag1
ag3
ag2
ag4
ag3
ag4
ag3
ag3
ag2
ag3
ag4
ag3
ag3
ag2
ag3
ag3
ag2
ag2
ag3
ag3
ag3
ag2
ag1
ag3
ag3
ag3
ag1
ag2
ag4
ag2
ag3
ag4
ag1
ag8
ag3
ag3
ag3
ag4
ag2
ag2
ag3
ag3
ag3
ag1
ag3
ag2
ag2
ag3
ag3
ag3
ag4
ag2
ag3
ag4
ag4
ag1
ag3
ag3
ag3
ag4
ag3
ag3
ag1
ag4
ag4
ag2
ag4
ag4
ag3
ag4
ag3
ag3
ag1
ag2
ag7
ag2
ag4
ag2
ag3
ag2
ag3
ag3
ag4
ag3
ag3
ag6
ag3
ag3
ag1
ag4
ag3
ag3
ag3
ag2
ag2
ag1
ag3
ag4
ag3
ag6
ag2
ag3
ag4
ag3
ag3
ag4
ag5
ag1
ag4
ag3
ag3
ag1
ag3
ag3
ag4
ag3
ag2
ag1
ag3
ag4
ag1
ag3
ag2
ag3
ag4
ag3
ag1
ag5
ag3
ag4
ag2
ag3
ag2
ag3
ag1
ag3
ag3
ag7
ag4
ag1
ag1
ag4
ag2
ag3
ag3
ag1
ag3
ag2
ag2
ag2
ag2
ag3
ag3
ag2
ag1
ag1
ag1
ag5
ag4
ag1
ag1
ag3
ag3
ag7
ag1
ag2
ag3
ag3
ag3
ag1
ag1
ag3
ag3
ag3
ag4
ag1
ag4
ag6
ag7
ag3
ag3
ag2
ag3
ag2
ag2
ag2
ag1
ag3
ag3
ag7
ag3
ag3
ag3
ag4
ag1
ag3
ag3
ag1
ag1
ag3
ag2
ag3
ag3
ag1
ag2
ag3
ag7
ag3
ag2
ag4
ag3
ag2
ag3
ag3
ag3
ag3
ag3
ag3
ag7
ag1
ag2
ag3
ag6
ag3
ag2
ag3
ag2
ag2
ag3
ag3
ag3
ag3
ag3
ag2
ag3
ag1
ag4
ag3
ag2
ag1
ag3
ag4
ag3
ag3
ag3
ag4
ag3
ag3
ag3
ag3
ag1
ag1
ag1
ag1
ag2
ag2
ag4
ag1
ag3
ag3
ag3
ag4
ag3
ag1
ag3
ag3
ag3
ag4
ag2
ag3
ag1
ag3
ag2
ag3
ag4
ag3
ag4
ag3
ag2
ag1
ag2
ag4
ag1
ag1
ag4
ag3
ag2
ag1
ag4
ag2
ag4
ag3
ag3
ag4
ag1
ag4
ag3
ag2
ag4
ag1
ag2
ag7
ag2
ag3
ag3
ag3
ag3
ag8
ag5
ag3
ag4
ag1
ag4
ag3
ag4
ag3
ag3
ag2
ag3
ag3
ag1
ag2
ag3
ag3
ag2
ag6
ag1
ag2
ag3
ag2
ag5
ag3
ag3
ag3
ag2
ag3
ag3
ag1
ag7
ag3
ag3
ag5
ag4
ag3
ag3
ag3
ag1
ag3
ag3
ag4
ag2
ag3
ag4
ag5
ag2
ag3
ag2
ag2
ag3
ag3
ag3
ag2
ag2
ag3
ag1
ag3
ag3
ag3
ag3
ag2
ag3
ag3
ag4
ag4
ag2
ag3
ag2
ag4
ag3
ag1
ag3
ag3
ag3
ag3
ag1
ag4
ag3
ag3
ag3
ag3
ag2
ag3
ag3
ag5
ag4
ag3
ag2
ag3
ag1
ag4
ag3
ag8
ag3
ag2
ag1
ag7
ag4
ag3
ag7
ag3
ag3
ag3
ag3
ag3
ag2
ag3
ag7
ag4
ag3
ag4
ag2
ag3
ag1
ag4
ag3
ag2
ag4
ag2
ag1
ag1
ag5
ag2
ag3
ag3
ag2
ag2
ag4
ag4
ag4
ag1
ag2
ag1
ag1
ag1
ag3
ag2
ag1
ag7
ag6
ag3
ag3
ag2
ag3
ag2
ag2
ag2
ag1
ag5
ag2
ag1
ag3
ag3
ag3
ag1
ag3
ag3
ag2
ag2
ag1
ag3
ag4
ag3
ag1
ag1
ag3
ag3
ag2
ag4
ag4
ag1
ag1
ag3
ag6
ag3
ag3
ag3
ag3
ag3
ag3
ag7
ag4
ag1
ag7
ag6
ag3
ag2
ag1
ag3
ag3
ag1
ag5
ag3
ag5
ag4
ag4
ag1
ag3
ag3
ag2
ag3
ag3
ag3
ag3
ag3
ag7
ag8
ag4
ag1
ag2
ag2
ag2
ag3
ag1
ag3
ag2
ag1
ag1
ag3
ag2
ag2
ag3
ag3
ag3
ag3
ag2
ag3
ag1
ag3
ag7
ag3
ag4
ag1
ag4
ag2
ag7
ag3
ag1
ag3
ag3
ag3
ag3
ag4
ag3
ag4
ag2
ag1
ag3
ag3
ag3
ag3
ag1
ag1
ag1
ag2
ag3
ag3
ag3
ag3
ag7
ag4
ag3
ag1
ag7
ag1
ag1
ag1
ag1
ag4
ag3
ag3
ag3
ag4
ag1
ag3
ag4
ag3
ag3
ag3
ag2
ag3
ag4
ag3
ag3
ag3
ag4
ag4
ag3
ag6
ag3
ag8
ag3
ag1
ag3
ag3
ag3
ag3
ag3
ag3
ag3
ag3
ag3
ag3
ag5
ag2
ag3
ag3
ag2
ag1
ag1
ag3
ag3
ag1
ag3
ag2
ag3
ag2
ag2
ag3
ag1
ag2
ag2
ag8
ag4
ag6
ag3
ag2
ag2
ag3
ag3
ag3
ag2
ag3
ag3
ag3
ag2
ag3
ag5
ag3
ag3
ag3
ag2
ag3
ag3
ag4
ag6
ag3
ag2
ag3
ag6
ag3
ag3
ag2
ag3
ag3
ag1
ag3
ag3
ag2
ag3
ag3
ag1
ag2
ag3
ag2
ag3
ag3
ag2
ag3
ag3
ag3
ag3
ag3
ag1
ag3
ag3
ag3
ag1
ag4
ag2
ag3
ag3
ag2
ag3
ag2
ag4
ag3
ag2
ag3
ag1
ag3
ag3
ag3
ag4
ag3
ag2
ag7
ag3
ag3
ag2
ag2
ag1
ag1
ag2
ag2
ag2
ag4
ag3
ag2
ag2
ag4
ag1
ag3
ag4
ag3
ag3
ag4
ag3
ag5
ag3
ag2
ag8
ag3
ag2
ag2
ag4
ag2
ag7
ag3
ag4
ag3
ag3
ag4
ag3
ag1
ag4
ag6
ag4
ag6
ag3
ag1
ag3
ag3
ag3
ag2
ag1
ag3
ag4
ag3
ag3
ag3
ag7
ag2
ag5
ag3
ag1
ag3
ag2
ag4
ag4
ag5
ag7
ag1
ag3
ag4
ag2
ag7
ag6
ag1
ag3
ag1
ag3
ag1
ag1
ag3
ag3
ag1
ag3
ag3
ag3
ag1
ag3
ag2
ag2
ag2
ag2
ag4
ag1
ag2
ag3
ag4
ag6
ag1
ag1
ag5
ag3
ag4
ag4
ag3
ag4
ag4
ag4
ag4
ag2
ag3
ag3
ag3
ag3
ag4
ag3
ag1
ag3
ag2
ag1
ag1
ag2
ag3
ag3
ag6
ag2
ag1
ag4
ag4
ag3
ag3
ag3
ag6
ag3
ag1
ag3
ag7
ag3
ag3
ag5
ag4
ag3
ag3
ag1
ag4
ag8
ag3
ag4
ag4
ag3
ag3
ag4
ag3
ag4
ag2
ag3
ag3
ag3
ag3
ag3
ag3
ag2
ag4
ag3
ag2
ag3
ag4
ag3
ag3
ag4
ag3
ag3
ag3
ag3
ag1
ag2
ag3
ag3
ag4
ag3
ag3
ag1
ag3
ag1
ag3
ag3
ag3
ag7
ag1
ag2
ag4
ag4
ag2
ag3
ag3
ag4
ag3
ag3
ag2
ag1
ag5
ag3
ag3
ag5
ag6
ag3
ag4
ag3
ag3
ag2
ag3
ag3
ag3
ag3
ag3
ag3
ag1
ag4
ag1
ag3
ag7
ag3
ag4
ag3
ag4
ag6
ag2
ag3
ag2
ag1
ag3
ag3
ag4
ag3
ag3
ag3
ag5
ag3
ag2
ag2
ag1
ag3
ag4
ag2
ag4
ag1
ag1
ag4
ag2
ag3
ag1
ag1
ag2
ag2
ag3
ag4
ag1
ag1
ag3
ag3
ag3
ag1
ag3
ag3
ag3
ag2
ag3
ag3
ag3
ag1
ag2
ag3
ag1
ag3
ag3
ag3
ag3
ag3
ag8
ag3
ag1
ag1
ag3
ag4
ag3
ag2
ag3
ag4
ag1
ag2
ag4
ag3
ag3
ag4
ag2
ag3
ag1
ag4
ag2
ag1
ag4
ag3
ag1
ag3
ag1
ag3
ag4
ag2
ag4
ag3
ag3
ag4
ag2
ag1
ag2
ag4
ag6
ag7
ag3
ag3
ag3
ag4
ag1
ag4
ag4
ag4
ag1
ag4
ag3
ag2
ag2
ag3
ag2
ag3
ag4
ag3
ag3
ag2
ag3
ag3
ag3
ag3
ag2
ag1
ag3
ag2
ag3
ag3
ag3
ag3
ag3
ag3
ag3
ag4
ag2
ag2
ag1
ag2
ag1
ag2
ag1
ag2
ag4
ag3
ag3
ag1
ag3
ag2
ag3
ag4
ag4
ag1
ag4
ag5
ag3
ag4
ag1
ag2
ag3
ag1
ag6
ag3
ag1
ag3
ag4
ag4
ag4
ag3
ag4
ag1
ag3
ag3
ag2
ag3
ag3
ag3
ag1
ag6
ag2
ag4
ag1
ag1
ag3
ag3
ag3
ag3
ag4
ag3
ag3
ag4
ag3
ag4
ag3
ag3
ag4
ag2
ag4
ag3
ag3
ag3
ag3
ag2
ag3
ag3
ag3
ag3
ag3
ag3
ag3
ag3
ag3
ag7
ag3
ag1
ag2
ag4
ag4
ag3
ag4
ag2
ag2
ag3
ag3
ag2
ag3
ag6
ag6
ag3
ag3
ag4
ag1
ag3
ag2
ag2
ag2
ag2
ag2
ag2
ag7
ag7
ag1
ag2
ag3
ag2
ag3
ag4
ag5
ag4
ag3
ag3
ag4
ag3
ag3
ag6
ag1
ag3
ag3
ag3
ag2
ag3
ag3
ag4
ag3
ag3
ag4
ag3
ag3
ag1
ag3
ag7
ag3
ag2
ag5
ag2
ag2
ag4
ag3
ag4
ag3
ag7
ag3
ag3
ag2
ag3
ag3
ag2
ag4
ag3
ag2
ag4
ag3
ag2
ag4
ag1
ag3
ag3
ag2
ag1
ag2
ag3
ag3
ag3
ag4
ag3
ag1
ag3
ag3
ag2
ag4
ag3
ag3
ag3
ag3
ag3
ag3
ag5
ag2
ag3
ag2
ag3
ag1
ag3
ag3
ag2
ag3
ag1
ag6
ag4
ag4
ag3
ag6
ag2
ag1
ag2
ag1
ag4
ag3
ag3
ag4
ag4
ag3
ag7
ag3
ag6
ag1
ag3
ag4
ag3
ag4
ag3
ag3
ag4
ag3
ag3
ag3
ag5
ag5
ag3
ag3
ag2
ag1
ag3
ag2
ag2
ag3
ag3
ag3
ag2
ag3
ag2
ag1
ag3
ag2
ag7
ag3
ag3
ag3
ag4
ag1
ag2
ag1
ag1
ag3
ag3
ag3
ag3
ag4
ag3
ag2
ag3
ag3
ag1
ag3
ag4
ag3
ag2
ag3
ag1
ag1
ag2
ag4
ag3
ag7
ag3
ag3
ag3
ag2
ag3
ag3
ag3
ag2
ag3
ag2
ag3
ag1
ag4
ag2
ag3
ag3
ag3
ag3
ag3
ag3
ag4
ag3
ag2
ag3
ag3
ag3
ag4
ag3
ag3
ag7
ag1
ag2
ag4
ag2
ag1
ag3
ag7
ag3
ag2
ag2
ag3
ag4
ag2
ag3
ag3
ag1
ag2
ag4
ag3
ag3
ag3
ag3
ag1
ag1
ag3
ag3
ag1
ag3
ag3
ag3
ag3
ag3
ag3
ag4
ag2
ag2
ag3
ag2
ag1
ag1
ag3
ag2
ag3
ag3
ag4
ag1
ag3
ag1
ag3
ag3
ag8
ag2
ag5
ag4
ag2
ag1
ag3
ag5
ag4
ag3
ag7
ag3
ag3
ag3
ag3
ag2
ag2
ag3
ag2
ag7
ag1
ag3
ag3
ag5
ag2
ag3
ag3
ag4
ag3
ag4
ag3
ag3
ag2
ag3
ag3
ag3
ag3
ag4
ag3
ag2
ag2
ag3
ag3
ag3
ag2
ag2
ag3
ag5
ag3
ag1
ag2
ag2
ag1
ag4
ag4
ag4
ag4
ag3
ag3
ag3
ag3
ag3
ag3
ag3
ag3
ag1
ag3
ag4
ag1
ag1
ag3
ag1
ag3
ag2
ag4
ag1
ag3
ag5
ag8
ag3
ag3
ag3
ag3
ag3
ag1
ag4
ag2
ag4
ag4
ag3
ag3
ag3
ag3
ag5
ag2
ag4
ag4
ag4
ag3
ag2
ag2
ag3
ag3
ag4
ag3
ag3
ag1
ag4
ag2
ag3
ag3
ag2
ag3
ag3
ag3
ag4
ag2
ag2
ag3
ag3
ag3
ag3
ag3
ag7
ag1
ag4
ag3
ag3
ag3
ag3
ag3
ag1
ag3
ag4
ag6
ag3
ag1
ag4
ag3
ag3
ag3
ag6
ag3
ag3
ag5
ag1
ag2
ag2
ag4
ag5
ag3
ag3
ag4
ag2
ag4
ag5
ag3
ag3
ag5
ag3
ag2
ag5
ag3
ag3
ag3
ag2
ag3
ag2
ag2
ag1
ag3
ag4
ag3
ag1
ag4
ag7
ag3
ag6
ag3
ag3
ag2
ag2
ag2
ag2
ag4
ag1
ag4
ag3
ag1
ag2
ag3
ag4
ag2
ag3
ag3
ag1
ag2
ag3
ag3
ag3
ag2
ag3
ag3
ag1
ag4
ag1
ag7
ag3
ag1
ag3
ag2
ag4
ag3
ag2
ag3
ag4
ag3
ag3
ag3
ag1
ag2
ag2
ag4
ag1
ag3
ag3
ag3
ag7
ag2
ag3
ag3
ag2
ag3
ag4
ag4
ag2
ag2
ag1
ag3
ag4
ag3
ag2
ag3
ag3
ag6
ag3
ag4
ag3
ag3
ag1
ag3
ag3
ag1
ag8
ag3
ag3
ag3
ag4
ag3
ag3
ag3
ag1
ag3
ag7
ag3
ag3
ag3
ag3
ag1
ag4
ag2
ag2
ag3
ag3
ag3
ag3
ag3
ag3
ag2
ag3
ag5
ag2
ag5
ag3
ag3
ag3
ag3
ag7
ag3
ag2
ag3
ag3
ag3
ag3
ag7
ag3
ag2
ag3
ag4
ag3
ag4
ag1
ag3
ag2
ag3
ag1
ag3
ag4
ag3
ag3
ag4
ag3
ag1
ag3
ag3
ag2
ag3
ag6
ag2
ag7
ag3
ag1
ag3
ag3
ag3
ag1
ag8
ag3
ag2
ag1
ag2
ag4
ag3
ag3
ag2
ag3
ag3
ag3
ag3
ag4
ag2
ag2
ag3
ag2
ag3
ag3
ag3
ag3
ag3
ag2
ag2
ag3
ag2
ag5
ag2
ag2
ag3
ag4
ag2
ag3
ag3
ag4
ag3
ag3
ag2
ag4
ag4
ag4
ag3
ag4
ag1
ag2
ag3
ag3
ag3
ag3
ag2
ag3
ag2
ag3
ag3
ag3
ag4
ag3
ag2
ag1
ag1
ag3
ag1
ag1
ag1
ag3
ag2
ag1
ag1
ag4
ag4
ag2
ag3
ag2
ag3
ag1
ag3
ag3
ag1
ag2
ag2
ag3
ag7
ag3
ag2
ag3
ag3
ag3
ag4
ag3
ag2
ag1
ag2
ag2
ag7
ag2
ag3
ag1
ag1
ag3
ag3
ag1
ag1
ag3
ag3
ag3
ag4
ag4
ag1
ag6
ag4
ag3
ag4
ag3
ag1
ag3
ag3
ag2
ag3
ag1
ag1
ag3
ag1
ag2
ag4
ag6
ag4
ag4
ag4
ag1
ag3
ag1
ag3
ag3
ag5
ag4
ag1
ag2
ag4
ag3
ag3
ag3
ag3
ag3
ag3
ag3
ag3
ag3
ag3
ag3
ag4
ag1
ag2
ag3
ag2
ag1
ag4
ag1
ag2
ag3
ag2
ag3
ag3
ag3
ag3
ag3
ag2
ag3
ag2
ag3
ag4
ag1
ag1
ag2
ag4
ag4
ag4
ag1
ag6
ag3
ag4
ag4
ag4
ag2
ag3
ag7
ag4
ag1
ag2
ag3
ag1
ag2
ag3
ag4
ag2
ag2
ag3
ag2
ag7
ag1
ag3
ag1
ag2
ag2
ag3
ag3
ag3
ag1
ag3
ag1
ag3
ag3
ag3
ag3
ag3
ag3
ag4
ag1
ag1
ag2
ag1
ag2
ag3
ag4
ag3
ag4
ag2
ag2
ag3
ag3
ag2
ag3
ag3
ag2
ag3
ag1
ag1
ag4
ag1
ag3
ag1
ag7
ag1
ag5
ag1
ag4
ag2
ag3
ag3
ag4
ag4
ag8
ag3
ag3
ag3
ag4
ag3
ag3
ag4
ag3
ag7
ag1
ag3
ag3
ag2
ag7
ag2
ag4
ag4
ag1
ag2
ag3
ag3
ag3
ag2
ag7
ag3
ag1
ag3
ag3
ag3
ag3
ag1
ag3
ag2
ag2
ag2
ag3
ag7
ag4
ag3
ag3
ag1
ag3
ag1
ag2
ag1
ag3
ag3
ag3
ag2
ag1
ag3
ag3
ag4
ag1
ag3
ag3
ag3
ag2
ag3
ag3
ag4
ag3
ag3
ag3
ag3
ag4
ag2
ag3
ag2
ag2
ag2
ag1
ag4
ag2
ag3
ag2
ag1
ag3
ag2
ag1
ag3
ag4
ag1
ag4
ag2
ag2
ag3
ag3
ag1
ag3
ag3
ag2
ag3
ag1
ag4
ag2
ag3
ag3
ag2
ag3
ag3
ag7
ag3
ag1
ag3
ag4
ag4
ag3
ag3
ag3
ag1
ag3
ag1
ag6
ag1
ag1
ag3
ag3
ag2
ag3
ag3
ag3
ag3
ag3
ag4
ag3
ag4
ag3
ag3
ag3
ag3
ag4
ag1
ag2
ag3
ag3
ag3
ag6
ag3
ag3
ag3
ag5
ag3
ag1
ag3
ag3
ag1
ag3
ag2
ag3
ag3
ag4
ag3
ag3
ag1
ag3
ag3
ag3
ag5
ag4
ag1
ag4
ag1
ag1
ag2
ag1
ag1
ag4
ag3
ag3
ag4
ag1
ag1
ag3
ag3
ag4
ag2
ag2
ag7
ag2
ag2
ag2
ag4
ag3
ag4
ag1
ag1
ag3
ag3
ag3
ag3
ag4
ag2
ag3
ag3
ag2
ag4
ag3
ag2
ag2
ag3
ag1
ag4
ag5
ag3
ag3
ag4
ag3
ag4
ag3
ag3
ag2
ag7
ag2
ag2
ag2
ag3
ag1
ag3
ag3
ag3
ag3
ag3
ag3
ag3
ag1
ag3
ag2
ag1
ag8
ag1
ag7
ag3
ag3
ag4
ag1
ag2
ag4
ag1
ag3
ag3
ag3
ag5
ag1
ag2
ag3
ag3
ag1
ag2
ag4
ag3
ag3
ag2
ag8
ag5
ag3
ag3
ag3
ag3
ag1
ag3
ag2
ag4
ag3
ag3
ag3
ag2
ag7
ag3
ag3
ag2
ag5
ag2
ag7
ag4
ag1
ag1
ag3
ag1
ag6
ag1
ag3
ag3
ag1
ag4
ag4
ag3
ag3
ag7
ag8
ag2
ag4
ag2
ag4
ag1
ag3
ag3
ag2
ag3
ag3
ag4
ag3
ag3
ag3
ag3
ag1
ag4
ag2
ag3
ag1
ag3
ag3
ag3
ag4
ag4
ag8
ag2
ag3
ag1
ag4
ag1
ag3
ag1
ag2
ag7
ag3
ag3
ag3
ag2
ag2
ag4
ag4
ag4
ag3
ag4
ag4
ag1
ag3
ag6
ag4
ag3
ag1
ag3
ag1
ag3
ag2
ag3
ag4
ag2
ag8
ag4
ag3
ag2
ag2
ag3
ag3
ag5
ag3
ag3
ag3
ag2
ag3
ag3
ag3
ag3
ag3
ag3
ag4
ag4
ag3
ag4
ag2
ag2
ag3
ag3
ag3
ag4
ag4
ag1
ag3
ag7
ag2
ag1
ag4
ag3
ag2
ag1
ag3
ag2
ag3
ag3
ag8
ag2
ag3
ag7
ag2
ag3
ag3
ag3
ag4
ag3
ag1
ag4
ag3
ag3
ag4
ag2
ag2
ag3
ag3
ag4
ag4
ag2
ag3
ag3
ag3
ag3
ag3
ag7
ag2
ag4
ag2
ag3
ag1
ag3
ag3
ag4
ag3
ag3
ag7
ag3
ag7
ag3
ag2
ag3
ag6
ag3
ag2
ag2
ag2
ag2
ag3
ag3
ag4
ag2
ag2
ag1
ag3
ag3
ag3
ag3
ag2
ag2
ag7
ag2
ag3
ag5
ag3
ag1
ag4
ag3
ag3
ag3
ag2
ag3
ag2
ag3
ag4
ag3
ag3
ag1
ag3
ag3
ag3
ag6
ag8
ag3
ag2
ag2
ag3
ag3
ag3
ag3
ag3
ag1
ag3
ag7
ag2
ag3
ag1
ag2
ag3
ag3
ag7
ag3
ag4
ag1
ag3
ag3
ag4
ag3
ag1
ag1
ag3
ag5
ag5
ag3
ag7
ag1
ag2
ag2
ag4
ag3
ag3
ag7
ag3
ag2
ag4
ag3
ag1
ag4
ag3
ag2
ag4
ag3
ag6
ag3
ag3
ag3
ag3
ag4
ag2
ag4
ag3
ag3
ag3
ag5
ag3
ag3
ag7
ag2
ag3
ag3
ag6
ag2
ag3
ag2
ag1
ag3
ag3
ag2
ag3
ag2
ag2
ag3
ag3
ag3
ag3
ag3
ag1
ag4
ag3
ag2
ag3
ag7
ag1
ag2
ag3
ag3
ag3
ag3
ag6
ag3
ag3
ag2
ag4
ag3
ag3
ag1
ag3
ag1
ag3
ag2
ag2
ag7
ag1
ag3
ag3
ag4
ag3
ag2
ag2
ag6
ag4
ag2
ag2
ag3
ag3
ag2
ag3
ag3
ag2
ag1
ag2
ag1
ag2
ag3
ag3
ag3
ag3
ag1
ag3
ag2
ag2
ag3
ag3
ag2
ag3
ag2
ag8
ag3
ag3
ag1
ag7
ag3
ag4
ag3
ag1
ag4
ag3
ag3
ag1
ag3
ag3
ag3
ag3
ag3
ag3
ag4
ag3
ag6
ag3
ag3
ag4
ag3
ag5
ag2
ag7
ag1
ag4
ag1
ag2
ag1
ag2
ag4
ag1
ag3
ag1
ag2
ag3
ag3
ag3
ag3
ag2
ag2
ag4
ag2
ag3
ag3
ag3
ag4
ag3
ag5
ag4
ag3
ag3
ag3
ag4
ag3
ag2
ag6
ag2
ag3
ag4
ag4
ag1
ag3
ag3
ag1
ag1
ag3
ag1
ag3
ag1
ag3
ag3
ag3
ag3
ag2
ag4
ag2
ag3
ag6
ag4
ag3
ag4
ag3
ag3
ag1
ag7
ag5
ag2
ag2
ag3
ag7
ag2
ag2
ag2
ag4
ag3
ag2
ag1
ag3
ag3
ag4
ag3
ag3
ag2
ag3
ag1
ag3
ag4
ag3
ag3
ag3
ag1
ag6
ag3
ag1
ag4
ag3
ag1
ag2
ag3
ag1
ag3
ag3
ag2
ag4
ag4
ag2
ag3
ag4
ag2
ag2
ag7
ag5
ag4
ag4
ag3
ag1
ag4
ag4
ag2
ag3
ag5
ag3
ag1
ag4
ag4
ag3
ag4
ag2
ag4
ag5
ag4
ag3
ag4
ag3
ag3
ag1
ag3
ag5
ag5
ag3
ag3
ag3
ag3
ag4
ag3
ag1
ag1
ag4
ag4
ag2
ag3
ag3
ag1
ag2
ag1
ag4
ag2
ag4
ag3
ag1
ag1
ag2
ag1
ag3
ag3
ag4
ag3
ag2
ag6
ag3
ag8
ag1
ag1
ag3
ag4
ag3
ag3
ag3
ag4
ag2
ag3
ag3
ag3
ag3
ag3
ag3
ag3
ag3
ag1
ag3
ag3
ag4
ag3
ag3
ag5
ag3
ag7
ag3
ag2
ag2
ag4
ag3
ag3
ag1
ag3
ag1
ag3
ag1
ag3
ag3
ag3
ag3
ag1
ag1
ag3
ag1
ag2
ag3
ag3
ag1
ag3
ag3
ag3
ag3
ag3
ag4
ag2
ag4
ag3
ag3
ag3
ag4
ag3
ag1
ag8
ag3
ag3
ag4
ag3
ag3
ag2
ag3
ag3
ag1
ag2
ag3
ag4
ag3
ag3
ag3
ag2
ag3
ag1
ag2
ag2
ag2
ag2
ag3
ag1
ag4
ag4
ag4
ag3
ag3
ag4
ag7
ag7
ag1
ag1
ag7
ag3
ag2
ag3
ag3
ag1
ag4
ag6
ag3
ag4
ag4
ag3
ag2
ag1
ag1
ag3
ag3
ag3
ag6
ag5
ag1
ag3
ag4
ag3
ag3
ag3
ag3
ag3
ag2
ag6
ag2
ag2
ag4
ag3
ag3
ag1
ag3
ag3
ag3
ag3
ag3
ag3
ag7
ag7
ag5
ag5
ag1
ag4
ag4
ag1
ag3
ag1
ag3
ag4
ag7
ag3
ag3
ag2
ag3
ag2
ag3
ag2
ag1
ag2
ag4
ag1
ag3
ag3
ag3
ag7
ag4
ag1
ag4
ag3
ag2
ag1
ag2
ag2
ag3
ag2
ag3
ag3
ag3
ag3
ag3
ag2
ag1
ag3
ag2
ag3
ag3
ag3
ag1
ag1
ag4
ag4
ag1
ag7
ag3
ag3
ag3
ag3
ag4
ag1
ag1
ag8
ag3
ag5
ag3
ag8
ag2
ag8
ag4
ag1
ag4
ag3
ag3
ag2
ag4
ag3
ag3
ag3
ag3
ag2
ag3
ag2
ag3
ag3
ag3
ag3
ag3
ag2
ag2
ag3
ag3
ag4
ag5
ag2
ag7
ag4
ag3
ag1
ag2
ag4
ag7
ag3
ag3
ag2
ag3
ag3
ag3
ag3
ag1
ag4
ag7
ag3
ag4
ag2
ag3
ag2
ag1
ag3
ag2
ag4
ag3
ag3
ag7
ag3
ag3
ag3
ag3
ag1
ag3
ag1
ag3
ag3
ag2
ag3
ag2
ag2
ag3
ag1
ag3
ag2
ag3
ag2
ag1
ag2
ag3
ag3
ag3
ag4
ag4
ag3
ag6
ag1
ag3
ag3
ag3
ag3
ag3
ag2
ag3
ag3
ag3
ag2
ag3
ag2
ag2
ag3
ag2
ag4
ag3
ag2
ag4
ag4
ag1
ag1
ag7
ag2
ag3
ag4
ag3
ag1
ag4
ag1
ag3
ag4
ag6
ag4
ag2
ag4
ag4
ag3
ag2
ag3
ag3
ag2
ag1
ag3
ag3
ag3
ag5
ag2
ag4
ag3
ag1
ag1
ag2
ag2
ag3
ag3
ag2
ag2
ag2
ag4
ag3
ag1
ag2
ag2
ag4
ag1
ag6
ag5
ag3
ag3
ag2
ag1
ag1
ag3
ag2
ag1
ag3
ag3
ag4
ag2
ag3
ag4
ag3
ag3
ag2
ag3
ag1
ag1
ag3
ag3
ag2
ag3
ag6
ag3
ag1
ag3
ag3
ag4
ag3
ag3
ag3
ag3
ag3
ag3
ag3
ag3
ag4
ag5
ag3
ag3
ag3
ag2
ag1
ag1
ag5
ag7
ag1
ag3
ag1
ag2
ag3
ag2
ag2
ag4
ag3
ag2
ag3
ag3
ag3
ag4
ag3
ag2
ag3
ag3
ag2
ag3
ag2
ag4
ag2
ag1
ag4
ag3
ag4
ag1
ag4
ag1
ag3
ag3
ag4
ag2
ag2
ag3
ag3
ag3
ag4
ag2
ag3
ag5
ag3
ag2
ag3
ag3
ag3
ag3
ag2
ag2
ag1
ag2
ag4
ag1
ag3
ag3
ag2
ag2
ag1
ag4
ag1
ag3
ag3
ag7
ag2
ag3
ag3
ag3
ag1
ag6
ag3
ag4
ag3
ag3
ag2
ag1
ag2
ag2
ag3
ag8
ag1
ag4
ag3
ag3
ag3
ag1
ag3
ag4
ag3
ag3
ag3
ag3
ag3
ag7
ag2
ag3
ag2
ag3
ag3
ag3
ag3
ag3
ag4
ag3
ag3
ag2
ag5
ag3
ag3
ag2
ag3
ag1
ag3
ag2
ag6
ag2
ag3
ag1
ag1
ag3
ag2
ag4
ag2
ag3
ag3
ag3
ag3
ag1
ag2
ag2
ag1
ag1
ag3
ag1
ag3
ag1
ag6
ag2
ag4
ag4
ag3
ag2
ag4
ag1
ag3
ag3
ag3
ag4
ag3
ag3
ag4
ag7
ag1
ag3
ag7
ag3
ag4
ag3
ag4
ag1
ag3
ag3
ag1
ag3
ag6
ag3
ag3
ag3
ag4
ag1
ag3
ag2
ag4
ag4
ag2
ag3
ag1
ag1
ag3
ag3
ag1
ag3
ag3
ag3
ag4
ag3
ag3
ag3
ag2
ag1
ag1
ag2
ag7
ag4
ag3
ag3
ag1
ag1
ag3
ag1
ag3
ag1
ag3
ag2
ag2
ag3
ag1
ag7
ag2
ag4
ag3
ag2
ag3
ag4
ag3
ag3
ag3
ag3
ag3
ag3
ag3
ag3
ag4
ag3
ag1
ag1
ag1
ag1
ag2
ag1
ag3
ag3
ag3
ag3
ag3
ag2
ag3
ag3
ag3
ag4
ag7
ag2
ag4
ag2
ag3
ag3
ag3
ag3
ag2
ag2
ag3
ag2
ag4
ag3
ag3
ag4
ag3
ag7
ag3
ag3
ag1
ag3
ag3
ag3
ag1
ag3
ag1
ag4
ag2
ag2
ag3
ag3
ag3
ag1
ag2
ag1
ag4
ag4
ag3
ag3
ag1
ag6
ag2
ag3
ag2
ag1
ag7
ag3
ag3
ag2
ag4
ag2
ag2
ag3
ag2
ag6
ag1
ag7
ag2
ag2
ag3
ag1
ag3
ag2
ag7
ag1
ag8
ag2
ag3
ag5
ag2
ag5
ag3
ag2
ag4
ag3
ag3
ag3
ag2
ag3
ag1
ag6
ag3
ag1
ag2
ag3
ag4
ag3
ag5
ag4
ag2
ag3
ag3
ag3
ag3
ag1
ag3
ag4
ag2
ag3
ag3
ag3
ag4
ag3
ag3
ag1
ag3
ag2
ag3
ag3
ag3
ag2
ag6
ag1
ag4
ag3
ag2
ag3
ag1
ag4
ag4
ag3
ag1
ag3
ag4
ag3
ag3
ag3
ag3
ag4
ag4
ag4
ag3
ag1
ag2
ag1
ag2
ag2
ag1
ag2
ag3
ag4
ag3
ag7
ag3
ag3
ag3
ag1
ag4
ag7
ag2
ag2
ag2
ag1
ag3
ag3
ag3
ag3
ag4
ag3
ag3
ag1
ag1
ag3
ag4
ag2
ag1
ag3
ag3
ag3
ag3
ag2
ag7
ag4
ag7
ag2
ag2
ag3
ag8
ag2
ag3
ag3
ag3
ag3
ag1
ag3
ag3
ag3
ag1
ag5
ag2
ag4
ag4
ag3
ag7
ag1
ag4
ag2
ag4
ag3
ag1
ag4
ag2
ag4
ag3
ag7
ag4
ag3
ag3
ag7
ag4
ag3
ag4
ag3
ag3
ag1
ag2
ag3
ag2
ag2
ag2
ag3
ag1
ag2
ag3
ag4
ag3
ag1
ag5
ag4
ag4
ag3
ag3
ag3
ag1
ag2
ag2
ag4
ag3
ag3
ag2
ag1
ag3
ag3
ag2
ag1
ag3
ag3
ag1
ag1
ag3
ag5
ag4
ag3
ag3
ag1
ag1
ag4
ag2
ag3
ag1
ag1
ag3
ag3
ag3
ag3
ag1
ag3
ag4
ag3
ag4
ag4
ag3
ag3
ag3
ag3
ag2
ag4
ag3
ag3
ag6
ag4
ag3
ag1
ag3
ag3
ag2
ag2
ag3
ag1
ag3
ag3
ag1
ag3
ag3
ag4
ag3
ag3
ag4
ag3
ag2
ag2
ag7
ag3
ag3
ag2
ag4
ag4
ag3
ag3
ag3
ag3
ag7
ag3
ag3
ag4
ag2
ag2
ag6
ag4
ag3
ag1
ag1
ag3
ag3
ag4
ag4
ag2
ag4
ag4
ag1
ag4
ag3
ag3
ag3
ag4
ag6
ag3
ag4
ag3
ag4
ag2
ag3
ag3
ag3
ag2
ag3
ag4
ag6
ag1
ag4
ag4
ag3
ag1
ag1
ag3
ag3
ag4
ag1
ag2
ag2
ag6
ag3
ag3
ag1
ag3
ag3
ag3
ag2
ag3
ag3
ag5
ag3
ag7
ag3
ag5
ag3
ag1
ag1
ag5
ag3
ag4
ag4
ag2
ag3
ag3
ag3
ag1
ag3
ag4
ag2
ag3
ag3
ag3
ag7
ag3
ag3
ag3
ag4
ag4
ag3
ag3
ag1
ag3
ag4
ag1
ag3
ag1
ag3
ag1
ag3
ag4
ag6
ag2
ag1
ag3
ag7
ag3
ag3
ag3
ag3
ag4
ag3
ag3
ag7
ag2
ag3
ag1
ag3
ag6
ag3
ag3
ag2
ag2
ag3
ag4
ag4
ag4
ag4
ag6
ag3
ag6
ag3
ag1
ag4
ag4
ag3
ag2
ag2
ag3
ag7
ag1
ag3
ag4
ag3
ag2
ag3
ag1
ag3
ag3
ag2
ag1
ag3
ag2
ag2
ag4
ag1
ag3
ag3
ag3
ag7
ag4
ag4
ag3
ag1
ag3
ag3
ag3
ag1
ag4
ag3
ag1
ag1
ag2
ag3
ag1
ag3
ag4
ag3
ag4
ag3
ag3
ag3
ag4
ag3
ag3
ag4
ag3
ag2
ag1
ag1
ag3
ag2
ag3
ag4
ag3
ag3
ag3
ag3
ag3
ag4
ag3
ag3
ag3
ag4
ag1
ag3
ag3
ag3
ag3
ag3
ag2
ag4
ag2
ag3
ag2
ag3
ag3
ag3
ag3
ag3
ag1
ag4
ag3
ag2
ag3
ag3
ag4
ag5
ag2
ag3
ag3
ag1
ag3
ag7
ag3
ag3
ag3
ag3
ag4
ag1
ag2
ag3
ag2
ag3
ag3
ag3
ag3
ag3
ag3
ag4
ag3
ag5
ag3
ag3
ag1
ag3
ag1
ag1
ag1
ag3
ag1
ag2
ag3
ag1
ag3
ag2
ag3
ag3
ag3
ag2
ag1
ag3
ag3
ag2
ag3
ag2
ag3
ag3
ag2
ag3
ag2
ag3
ag8
ag7
ag2
ag7
ag3
ag3
ag3
ag1
ag3
ag1
ag3
ag3
ag3
ag3
ag2
ag8
ag6
ag4
ag3
ag4
ag1
ag1
ag3
ag4
ag4
ag3
ag3
ag3
ag3
ag3
ag1
ag3
ag4
ag3
ag4
ag3
ag1
ag3
ag3
ag3
ag3
ag6
ag2
ag1
ag2
ag4
ag7
ag2
ag3
ag1
ag3
ag2
ag3
ag4
ag3
ag3
ag4
ag3
ag3
ag2
ag3
ag1
ag4
ag4
ag3
ag3
ag3
ag3
ag3
ag2
ag1
ag2
ag3
ag4
ag2
ag4
ag5
ag4
ag3
ag3
ag8
ag4
ag4
ag4
ag4
ag2
ag3
ag2
ag3
ag4
ag3
ag3
ag4
ag3
ag4
ag4
ag1
ag3
ag1
ag4
ag1
ag2
ag3
ag4
ag3
ag2
ag3
ag3
ag6
ag3
ag5
ag2
ag2
ag3
ag1
ag3
ag3
ag1
ag3
ag3
ag5
ag1
ag3
ag1
ag1
ag4
ag3
ag3
ag4
ag3
ag2
ag2
ag4
ag2
ag4
ag2
ag2
ag2
ag5
ag1
ag3
ag2
ag4
ag2
ag1
ag8
ag3
ag2
ag2
ag3
ag3
ag3
ag4
ag2
ag3
ag3
ag1
ag2
ag3
ag3
ag6
ag1
ag2
ag2
ag2
ag3
ag3
ag1
ag3
ag3
ag3
ag3
ag2
ag3
ag2
ag3
ag2
ag3
ag3
ag3
ag4
ag1
ag6
ag2
ag3
ag3
ag3
ag1
ag2
ag3
ag3
ag3
ag3
ag4
ag3
ag3
ag3
ag2
ag4
ag4
ag3
ag3
ag3
ag2
ag2
ag3
ag4
ag2
ag3
ag1
ag3
ag4
ag3
ag3
ag2
ag4
ag4
ag3
ag3
ag3
ag3
ag2
ag3
ag4
ag3
ag3
ag6
ag2
ag1
ag3
ag4
ag3
ag1
ag1
ag4
ag2
ag1
ag2
ag3
ag4
ag3
ag8
ag3
ag3
ag3
ag2
ag3
ag1
ag2
ag4
ag3
ag4
ag4
ag4
ag2
ag3
ag1
ag3
ag2
ag4
ag4
ag2
ag3
ag2
ag4
ag1
ag3
ag1
ag2
ag3
ag3
ag1
ag3
ag4
ag4
ag4
ag2
ag3
ag3
ag1
ag2
ag3
ag2
ag3
ag2
ag1
ag3
ag2
ag3
ag2
ag2
ag7
ag1
ag3
ag1
ag4
ag3
ag3
ag3
ag1
ag2
ag3
ag1
ag3
ag4
ag1
ag3
ag3
ag4
ag4
ag2
ag3
ag3
ag3
ag3
ag5
ag3
ag3
ag1
ag3
ag3
ag2
ag3
ag3
ag2
ag3
ag3
ag4
ag3
ag1
ag5
ag3
ag3
ag4
ag3
ag2
ag1
ag3
ag1
ag3
ag2
ag2
ag2
ag3
ag1
ag1
ag3
ag3
ag1
ag3
ag4
ag3
ag5
ag1
ag2
ag3
ag2
ag4
ag4
ag4
ag1
ag2
ag7
ag2
ag3
ag3
ag3
ag3
ag3
ag3
ag3
ag1
ag3
ag7
ag4
ag4
ag3
ag3
ag3
ag5
ag1
ag3
ag3
ag3
ag4
ag2
ag3
ag3
ag2
ag3
ag3
ag3
ag3
ag4
ag4
ag1
ag3
ag6
ag1
ag1
ag1
ag2
ag3
ag2
ag3
ag3
ag2
ag3
ag2
ag1
ag2
ag3
ag4
ag3
ag4
ag1
ag3
ag2
ag2
ag1
ag4
ag4
ag3
ag3
ag2
ag2
ag4
ag2
ag3
ag7
ag3
ag3
ag3
ag4
ag2
ag7
ag3
ag2
ag4
ag5
ag2
ag4
ag3
ag4
ag3
ag2
ag3
ag4
ag3
ag3
ag3
ag4
ag3
ag3
ag3
ag7
ag3
ag3
ag4
ag3
ag4
ag3
ag5
ag3
ag1
ag4
ag4
ag3
ag2
ag2
ag3
ag5
ag3
ag4
ag3
ag3
ag3
ag4
ag3
ag3
ag3
ag2
ag4
ag3
ag3
ag3
ag3
ag4
ag4
ag3
ag7
ag1
ag3
ag1
ag4
ag1
ag1
ag4
ag3
ag3
ag3
ag4
ag1
ag2
ag3
ag3
ag2
ag3
ag3
ag1
ag5
ag3
ag4
ag4
ag3
ag3
ag3
ag3
ag1
ag3
ag1
ag2
ag7
ag4
ag3
ag4
ag3
ag3
ag4
ag4
ag3
ag4
ag3
ag3
ag1
ag3
ag2
ag3
ag3
ag3
ag3
ag3
ag2
ag3
ag6
ag4
ag2
ag1
ag3
ag3
ag3
ag4
ag5
ag3
ag2
ag3
ag1
ag4
ag1
ag3
ag3
ag3
ag4
ag3
ag2
ag4
ag2
ag2
ag2
ag2
ag6
ag3
ag1
ag6
ag3
ag1
ag2
ag3
ag4
ag3
ag3
ag3
ag2
ag2
ag3
ag2
ag3
ag4
ag3
ag3
ag3
ag1
ag3
ag3
ag3
ag1
ag2
ag3
ag3
ag3
ag3
ag1
ag2
ag3
ag3
ag3
ag3
ag2
ag1
ag3
ag5
ag4
ag5
ag3
ag4
ag4
ag3
ag3
ag6
ag2
ag3
ag1
ag2
ag4
ag3
ag3
ag3
ag1
ag2
ag2
ag1
ag3
ag3
ag3
ag3
ag1
ag1
ag3
ag3
ag2
ag3
ag3
ag3
ag2
ag3
ag4
ag4
ag3
ag3
ag2
ag7
ag4
ag3
ag3
ag3
ag4
ag4
ag3
ag4
ag3
ag1
ag3
ag3
ag6
ag3
ag3
ag3
ag3
ag3
ag5
ag3
ag1
ag3
ag2
ag3
ag5
ag3
ag4
ag1
ag1
ag3
ag3
ag3
ag2
ag4
ag3
ag2
ag1
ag4
ag3
ag3
ag3
ag2
ag3
ag3
ag3
ag4
ag3
ag3
ag1
ag4
ag3
ag3
ag2
ag3
ag2
ag3
ag2
ag3
ag1
ag7
ag1
ag1
ag7
ag3
ag3
ag1
ag4
ag1
ag1
ag3
ag3
ag1
ag3
ag3
ag7
ag4
ag3
ag4
ag3
ag4
ag4
ag3
ag6
ag2
ag3
ag3
ag4
ag3
ag3
ag4
ag2
ag1
ag7
ag4
ag3
ag2
ag2
ag2
ag2
ag3
ag2
ag6
ag1
ag3
ag3
ag3
ag4
ag3
ag3
ag3
ag2
ag1
ag2
ag1
ag3
ag3
ag2
ag2
ag4
ag1
ag1
ag3
ag3
ag3
ag2
ag3
ag3
ag7
ag6
ag2
ag3
ag4
ag3
ag3
ag3
ag3
ag4
ag3
ag2
ag2
ag2
ag3
ag3
ag3
ag1
ag2
ag2
ag4
ag1
ag2
ag1
ag2
ag2
ag3
ag4
ag3
ag1
ag3
ag3
ag2
ag1
ag2
ag1
ag2
ag3
ag5
ag2
ag3
ag4
ag3
ag3
ag2
ag2
ag2
ag8
ag3
ag3
ag3
ag3
ag1
ag3
ag6
ag3
ag3
ag3
ag2
ag3
ag3
ag3
ag3
ag3
ag3
ag3
ag3
ag2
ag1
ag4
ag3
ag8
ag2
ag3
ag3
ag2
ag3
ag3
ag3
ag3
ag3
ag3
ag3
ag3
ag3
ag3
ag2
ag3
ag3
ag2
ag3
ag3
ag3
ag4
ag3
ag3
ag3
ag3
ag3
ag3
ag3
ag3
ag3
ag3
ag4
ag3
ag3
ag2
ag4
ag3
ag5
ag2
ag3
ag1
ag1
ag2
ag4
ag3
ag3
ag7
ag4
ag2
ag3
ag3
ag1
ag1
ag3
ag4
ag3
ag1
ag3
ag1
ag3
ag5
ag5
ag4
ag6
ag6
ag3
ag7
ag6
ag3
ag6
ag3
ag1
ag2
ag3
ag2
ag3
ag3
ag1
ag1
ag1
ag1
ag2
ag3
ag3
ag3
ag2
ag4
ag3
ag4
ag3
ag2
ag2
ag1
ag3
ag2
ag2
ag1
ag1
ag1
ag2
ag3
ag1
ag3
ag3
ag3
ag3
ag3
ag3
ag3
ag2
ag2
ag3
ag3
ag3
ag3
ag2
ag3
ag6
ag4
ag3
ag1
ag3
ag3
ag3
ag2
ag3
ag7
ag3
ag2
ag4
ag3
ag1
ag3
ag1
ag4
ag2
ag3
ag2
ag4
ag4
ag3
ag3
ag3
ag1
ag3
ag3
ag4
ag3
ag8
ag2
ag1
ag3
ag3
ag2
ag3
ag1
ag3
ag1
ag4
ag3
ag2
ag2
ag6
ag3
ag3
ag4
ag1
ag2
ag3
ag3
ag3
ag3
ag2
ag1
ag2
ag3
ag3
ag3
ag2
ag3
ag3
ag3
ag3
ag3
ag1
ag3
ag1
ag2
ag3
ag1
ag3
ag4
ag2
ag3
ag7
ag1
ag3
ag3
ag4
ag4
ag7
ag1
ag2
ag2
ag2
ag1
ag4
ag3
ag3
ag3
ag3
ag2
ag2
ag3
ag1
ag2
ag2
ag1
ag1
ag3
ag2
ag2
ag1
ag1
ag3
ag3
ag3
ag2
ag3
ag3
ag3
ag2
ag3
ag5
ag3
ag2
ag3
ag1
ag3
ag4
ag3
ag2
ag3
ag2
ag4
ag3
ag3
ag1
ag3
ag1
ag1
ag1
ag1
ag4
ag1
ag4
ag3
ag4
ag3
ag2
ag3
ag3
ag6
ag3
ag4
ag1
ag5
ag2
ag3
ag3
ag4
ag1
ag3
ag2
ag1
ag3
ag1
ag1
ag2
ag2
ag1
ag4
ag4
ag3
ag3
ag3
ag3
ag2
ag4
ag3
ag3
ag2
ag4
ag7
ag1
ag3
ag4
ag3
ag4
ag3
ag3
ag1
ag4
ag2
ag3
ag3
ag3
ag3
ag2
ag3
ag3
ag2
ag3
ag2
ag5
ag3
ag2
ag3
ag3
ag1
ag2
ag2
ag1
ag4
ag3
ag1
ag2
ag2
ag1
ag3
ag3
ag4
ag3
ag3
ag3
ag4
ag4
ag2
ag1
ag2
ag4
ag3
ag3
ag4
ag1
ag3
ag2
ag3
ag2
ag3
ag1
ag4
ag3
ag4
ag3
ag4
ag4
ag4
ag3
ag3
ag2
ag4
ag4
ag3
ag1
ag7
ag3
ag4
ag2
ag3
ag4
ag3
ag2
ag3
ag2
ag3
ag1
ag3
ag1
ag3
ag4
ag1
ag2
ag3
ag4
ag3
ag3
ag6
ag2
ag3
ag3
ag2
ag3
ag1
ag2
ag1
ag3
ag2
ag3
ag3
ag2
ag3
ag4
ag7
ag7
ag3
ag7
ag1
ag1
ag3
ag2
ag4
ag2
ag3
ag4
ag1
ag3
ag4
ag3
ag4
ag3
ag2
ag3
ag1
ag2
ag1
ag2
ag2
ag3
ag3
ag3
ag3
ag3
ag7
ag2
ag1
ag1
ag3
ag3
ag3
ag7
ag2
ag1
ag1
ag3
ag5
ag2
ag3
ag4
ag7
ag6
ag1
ag3
ag1
ag2
ag7
ag2
ag2
ag3
ag2
ag3
ag4
ag3
ag2
ag3
ag7
ag3
ag1
ag3
ag4
ag5
ag4
ag3
ag3
ag3
ag2
ag3
ag3
ag3
ag4
ag4
ag6
ag3
ag1
ag4
ag2
ag2
ag1
ag4
ag3
ag1
ag3
ag3
ag1
ag6
ag3
ag2
ag3
ag1
ag5
ag3
ag3
ag7
ag3
ag3
ag2
ag3
ag3
ag1
ag3
ag3
ag4
ag3
ag3
ag3
ag3
ag4
ag3
ag4
ag3
ag3
ag3
ag3
ag3
ag4
ag4
ag3
ag2
ag4
ag3
ag3
ag3
ag4
ag3
ag2
ag2
ag3
ag2
ag2
ag3
ag3
ag3
ag3
ag3
ag3
ag5
ag1
ag3
ag1
ag2
ag3
ag2
ag1
ag1
ag4
ag2
ag3
ag1
ag3
ag3
ag7
ag1
ag1
ag3
ag4
ag7
ag3
ag4
ag3
ag3
ag1
ag3
ag3
ag3
ag3
ag2
ag3
ag6
ag1
ag1
ag2
ag3
ag4
ag3
ag3
ag3
ag3
ag1
ag1
ag3
ag4
ag2
ag4
ag1
ag4
ag2
ag2
ag5
ag6
ag1
ag4
ag3
ag2
ag1
ag3
ag3
ag4
ag1
ag3
ag1
ag2
ag3
ag3
ag3
ag2
ag3
ag3
ag3
ag3
ag3
ag3
ag4
ag3
ag4
ag2
ag3
ag4
ag3
ag3
ag3
ag3
ag4
ag3
ag3
ag4
ag4
ag3
ag5
ag1
ag3
ag7
ag2
ag7
ag3
ag3
ag3
ag2
ag3
ag4
ag4
ag3
ag5
ag3
ag3
ag1
ag2
ag3
ag3
ag1
ag3
ag2
ag3
ag1
ag3
ag3
ag3
ag2
ag1
ag4
ag3
ag3
ag8
ag3
ag3
ag4
ag2
ag4
ag5
ag4
ag3
ag1
ag3
ag8
ag1
ag3
ag2
ag3
ag3
ag2
ag3
ag7
ag2
ag3
ag3
ag3
ag3
ag2
ag4
ag2
ag6
ag3
ag3
ag3
ag1
ag3
ag2
ag4
ag3
ag4
ag6
ag1
ag2
ag4
ag8
ag3
ag1
ag4
ag3
ag1
ag6
ag3
ag2
ag3
ag4
ag3
ag1
ag3
ag1
ag3
ag3
ag4
ag3
ag2
ag1
ag7
ag3
ag3
ag2
ag3
ag1
ag4
ag3
ag4
ag1
ag2
ag1
ag3
ag3
ag7
ag3
ag4
ag3
ag2
ag3
ag1
ag1
ag1
ag3
ag3
ag2
ag3
ag1
ag3
ag3
ag1
ag1
ag2
ag3
ag3
ag2
ag3
ag1
ag4
ag1
ag3
ag1
ag3
ag4
ag2
ag2
ag3
ag3
ag3
ag3
ag2
ag1
ag1
ag5
ag2
ag3
ag3
ag1
ag1
ag1
ag6
ag3
ag6
ag3
ag1
ag3
ag3
ag2
ag3
ag4
ag1
ag2
ag2
ag3
ag3
ag3
ag2
ag2
ag3
ag1
ag1
ag3
ag1
ag7
ag1
ag4
ag3
ag3
ag3
ag3
ag3
ag3
ag3
ag4
ag4
ag4
ag4
ag3
ag1
ag4
ag3
ag1
ag3
ag3
ag2
ag5
ag3
ag2
ag3
ag2
ag1
ag2
ag3
ag2
ag3
ag3
ag4
ag2
ag3
ag3
ag3
ag4
ag2
ag3
ag2
ag2
ag3
ag6
ag3
ag3
ag3
ag3
ag3
ag3
ag3
ag3
ag5
ag3
ag2
ag2
ag4
ag4
ag3
ag2
ag7
ag8
ag2
ag3
ag3
ag3
ag4
ag3
ag2
ag1
ag3
ag4
ag5
ag3
ag2
ag2
ag3
ag3
ag4
ag3
ag3
ag7
ag3
ag1
ag1
ag3
ag3
ag4
ag4
ag2
ag1
ag8
ag3
ag3
ag2
ag1
ag6
ag3
ag3
ag4
ag4
ag1
ag1
ag2
ag3
ag3
ag3
ag2
ag2
ag3
ag3
ag3
ag1
ag1
ag3
ag2
ag3
ag3
ag1
ag3
ag6
ag4
ag1
ag4
ag4
ag2
ag1
ag3
ag2
ag6
ag3
ag3
ag3
ag1
ag3
ag4
ag2
ag2
ag4
ag4
ag3
ag3
ag3
ag2
ag3
ag1
ag3
ag4
ag3
ag4
ag2
ag3
ag4
ag3
ag3
ag8
ag2
ag2
ag3
ag4
ag2
ag7
ag1
ag4
ag4
ag3
ag1
ag3
ag1
ag4
ag3
ag2
ag3
ag3
ag6
ag4
ag4
ag4
ag3
ag8
ag2
ag4
ag3
ag4
ag3
ag4
ag3
ag7
ag3
ag1
ag3
ag3
ag6
ag7
ag1
ag1
ag3
ag3
ag3
ag3
ag1
ag1
ag2
ag3
ag3
ag3
ag1
ag3
ag3
ag1
ag3
ag3
ag3
ag3
ag4
ag3
ag3
ag4
ag1
ag3
ag2
ag2
ag3
ag3
ag2
ag3
ag3
ag1
ag3
ag7
ag3
ag3
ag1
ag8
ag3
ag3
ag4
ag3
ag4
ag3
ag2
ag3
ag1
ag3
ag4
ag3
ag5
ag3
ag3
ag3
ag1
ag3
ag3
ag4
ag4
ag3
ag3
ag4
ag3
ag2
ag2
ag3
ag2
ag5
ag1
ag4
ag3
ag2
ag5
ag3
ag2
ag3
ag4
ag4
ag3
ag4
ag3
ag2
ag1
ag2
ag7
ag4
ag2
ag1
ag4
ag3
ag2
ag3
ag3
ag3
ag3
ag2
ag3
ag2
ag1
ag4
ag4
ag2
ag2
ag3
ag3
ag3
ag2
ag2
ag5
ag3
ag3
ag1
ag3
ag4
ag3
ag2
ag3
ag3
ag3
ag7
ag7
ag3
ag2
ag1
ag4
ag3
ag3
ag7
ag2
ag3
ag7
ag7
ag2
ag3
ag4
ag2
ag3
ag2
ag2
ag3
ag6
ag3
ag3
ag3
ag3
ag8
ag1
ag3
ag4
ag1
ag3
ag3
ag2
ag4
ag3
ag2
ag4
ag1
ag3
ag3
ag2
ag3
ag3
ag6
ag3
ag3
ag3
ag4
ag4
ag2
ag4
ag3
ag3
ag1
ag4
ag3
ag3
ag2
ag3
ag3
ag4
ag4
ag4
ag4
ag1
ag5
ag3
ag3
ag7
ag1
ag3
ag3
ag2
ag3
ag2
ag4
ag7
ag2
ag4
ag2
ag1
ag4
ag3
ag3
ag1
ag3
ag4
ag3
ag4
ag3
ag2
ag1
ag7
ag3
ag5
ag3
ag3
ag2
ag2
ag4
ag3
ag1
ag3
ag3
ag2
ag3
ag3
ag4
ag1
ag3
ag3
ag1
ag5
ag3
ag4
ag3
ag7
ag4
ag2
ag1
ag1
ag3
ag3
ag3
ag1
ag7
ag3
ag3
ag3
ag4
ag3
ag3
ag3
ag2
ag3
ag3
ag7
ag3
ag2
ag1
ag4
ag6
ag3
ag2
ag1
ag4
ag2
ag2
ag4
ag4
ag3
ag3
ag1
ag1
ag6
ag6
ag2
ag4
ag1
ag3
ag1
ag3
ag1
ag2
ag2
ag2
ag3
ag6
ag4
ag1
ag2
ag7
ag1
ag3
ag3
ag3
ag2
ag6
ag4
ag2
ag2
ag4
ag4
ag6
ag3
ag3
ag3
ag4
ag3
ag3
ag2
ag4
ag3
ag2
ag4
ag2
ag3
ag1
ag1
ag2
ag2
ag3
ag4
ag3
ag2
ag1
ag3
ag3
ag3
ag3
ag4
ag3
ag1
ag3
ag4
ag2
ag3
ag2
ag1
ag4
ag3
ag3
ag3
ag5
ag2
ag4
ag1
ag3
ag3
ag3
ag3
ag3
ag3
ag3
ag3
ag4
ag1
ag4
ag1
ag1
ag3
ag3
ag2
ag5
ag1
ag3
ag3
ag3
ag2
ag1
ag2
ag4
ag1
ag1
ag2
ag3
ag3
ag4
ag1
ag3
ag3
ag3
ag2
ag3
ag1
ag1
ag4
ag3
ag3
ag2
ag3
ag3
ag3
ag3
ag3
ag4
ag3
ag2
ag1
ag3
ag3
ag4
ag3
ag4
ag2
ag4
ag3
ag2
ag3
ag4
ag1
ag3
ag4
ag1
ag3
ag1
ag3
ag3
ag2
ag3
ag1
ag2
ag1
ag3
ag4
ag1
ag3
ag3
ag2
ag3
ag3
ag4
ag3
ag3
ag8
ag4
ag6
ag3
ag4
ag4
ag2
ag4
ag3
ag3
ag4
ag3
ag3
ag2
ag4
ag1
ag3
ag1
ag3
ag1
ag7
ag4
ag2
ag1
ag3
ag4
ag1
ag3
ag3
ag3
ag7
ag3
ag3
ag8
ag3
ag3
ag3
ag3
ag4
ag8
ag3
ag4
ag4
ag4
ag3
ag3
ag3
ag2
ag4
ag4
ag2
ag4
ag3
ag3
ag3
ag3
ag4
ag6
ag3
ag7
ag2
ag4
ag3
ag2
ag2
ag2
ag3
ag3
ag3
ag5
ag2
ag3
ag2
ag3
ag1
ag3
ag3
ag4
ag3
ag3
ag1
ag1
ag3
ag3
ag3
ag2
ag3
ag6
ag4
ag3
ag3
ag4
ag3
ag3
ag2
ag6
ag3
ag4
ag2
ag3
ag3
ag2
ag3
ag1
ag3
ag3
ag5
ag1
ag3
ag8
ag1
ag3
ag2
ag2
ag2
ag3
ag3
ag3
ag2
ag3
ag2
ag3
ag3
ag4
ag2
ag2
ag2
ag2
ag4
ag7
ag2
ag3
ag3
ag3
ag1
ag2
ag4
ag2
ag4
ag2
ag3
ag1
ag7
ag3
ag4
ag1
ag4
ag2
ag2
ag3
ag3
ag1
ag3
ag2
ag6
ag3
ag5
ag1
ag3
ag2
ag2
ag2
ag3
ag1
ag2
ag3
ag3
ag3
ag4
ag4
ag2
ag3
ag3
ag3
ag4
ag1
ag2
ag1
ag4
ag3
ag4
ag4
ag2
ag7
ag2
ag3
ag3
ag3
ag3
ag3
ag2
ag3
ag3
ag2
ag4
ag1
ag3
ag3
ag3
ag2
ag3
ag3
ag3
ag3
ag3
ag3
ag1
ag4
ag4
ag1
ag3
ag1
ag3
ag3
ag3
ag3
ag3
ag3
ag1
ag4
ag1
ag3
ag4
ag3
ag3
ag3
ag3
ag3
ag3
ag3
ag1
ag4
ag1
ag1
ag3
ag3
ag2
ag2
ag3
ag3
ag4
ag7
ag2
ag2
ag4
ag4
ag2
ag7
ag3
ag4
ag5
ag7
ag1
ag3
ag3
ag3
ag2
ag3
ag1
ag4
ag2
ag2
ag3
ag3
ag3
ag3
ag3
ag4
ag2
ag2
ag3
ag5
ag6
ag3
ag4
ag2
ag3
ag4
ag1
ag2
ag3
ag1
ag1
ag3
ag1
ag3
ag4
ag1
ag3
ag2
ag3
ag3
ag4
ag1
ag1
ag2
ag3
ag2
ag3
ag1
ag3
ag3
ag3
ag7
ag3
ag3
ag1
ag1
ag6
ag5
ag3
ag3
ag2
ag4
ag1
ag1
ag2
ag1
ag4
ag3
ag3
ag1
ag2
ag2
ag3
ag3
ag2
ag3
ag2
ag3
ag1
ag7
ag4
ag3
ag3
ag3
ag3
ag3
ag2
ag3
ag2
ag5
ag6
ag2
ag2
ag3
ag3
ag1
ag3
ag3
ag4
ag4
ag3
ag2
ag3
ag3
ag1
ag1
ag3
ag3
ag3
ag3
ag4
ag4
ag1
ag4
ag6
ag2
ag3
ag2
ag2
ag2
ag3
ag2
ag3
ag3
ag3
ag7
ag3
ag1
ag2
ag3
ag2
ag4
ag4
ag6
ag1
ag3
ag1
ag3
ag2
ag3
ag4
ag1
ag1
ag7
ag3
ag3
ag3
ag3
ag4
ag3
ag3
ag1
ag4
ag3
ag3
ag3
ag2
ag2
ag3
ag3
ag1
ag4
ag3
ag3
ag3
ag2
ag1
ag3
ag6
ag1
ag2
ag4
ag1
ag2
ag4
ag3
ag1
ag2
ag4
ag1
ag2
ag3
ag2
ag2
ag1
ag4
ag3
ag3
ag3
ag4
ag2
ag4
ag4
ag3
ag5
ag2
ag4
ag4
ag3
ag3
ag4
ag3
ag3
ag3
ag3
ag1
ag3
ag3
ag3
ag4
ag3
ag1
ag3
ag3
ag3
ag4
ag3
ag3
ag4
ag1
ag6
ag4
ag6
ag1
ag1
ag1
ag3
ag3
ag2
ag1
ag7
ag3
ag3
ag4
ag3
ag3
ag3
ag3
ag3
ag3
ag2
ag1
ag2
ag2
ag3
ag3
ag2
ag3
ag3
ag3
ag3
ag5
ag1
ag2
ag2
ag3
ag4
ag1
ag3
ag3
ag3
ag2
ag3
ag3
ag4
ag4
ag4
ag4
ag3
ag3
ag2
ag5
ag3
ag3
ag3
ag1
ag4
ag1
ag1
ag3
ag1
ag3
ag4
ag1
ag3
ag7
ag3
ag3
ag3
ag3
ag1
ag1
ag1
ag3
ag2
ag3
ag4
ag3
ag4
ag3
ag3
ag3
ag2
ag8
ag3
ag3
ag3
ag4
ag3
ag3
ag4
ag5
ag3
ag3
ag3
ag2
ag3
ag3
ag2
ag4
ag3
ag3
ag1
ag3
ag3
ag4
ag5
ag3
ag3
ag1
ag4
ag1
ag3
ag3
ag3
ag3
ag3
ag4
ag1
ag2
ag3
ag4
ag1
ag1
ag2
ag3
ag3
ag3
ag3
ag2
ag3
ag2
ag4
ag3
ag3
ag2
ag2
ag3
ag4
ag1
ag4
ag3
ag2
ag5
ag4
ag3
ag2
ag3
ag1
ag2
ag1
ag3
ag4
ag3
ag2
ag4
ag2
ag2
ag4
ag3
ag3
ag1
ag4
ag3
ag6
ag6
ag2
ag3
ag3
ag1
ag3
ag2
ag1
ag3
ag2
ag3
ag3
ag2
ag3
ag4
ag3
ag4
ag3
ag4
ag4
ag2
ag3
ag2
ag2
ag4
ag3
ag4
ag2
ag2
ag3
ag2
ag4
ag4
ag4
ag3
ag4
ag3
ag2
ag1
ag2
ag4
ag1
ag3
ag3
ag3
ag3
ag2
ag3
ag2
ag1
ag1
ag3
ag4
ag1
ag4
ag3
ag3
ag4
ag3
ag1
ag3
ag3
ag1
ag4
ag3
ag3
ag3
ag3
ag2
ag3
ag3
ag3
ag4
ag3
ag3
ag3
ag3
ag3
ag3
ag3
ag3
ag3
ag7
ag4
ag5
ag3
ag3
ag3
ag3
ag2
ag3
ag1
ag2
ag7
ag3
ag3
ag3
ag3
ag3
ag3
ag1
ag4
ag3
ag2
ag3
ag3
ag3
ag3
ag2
ag3
ag3
ag2
ag3
ag3
ag1
ag3
ag2
ag2
ag2
ag2
ag1
ag3
ag7
ag3
ag4
ag5
ag2
ag1
ag2
ag3
ag2
ag3
ag5
ag2
ag1
ag7
ag2
ag4
ag3
ag6
ag3
ag1
ag1
ag7
ag4
ag3
ag3
ag1
ag3
ag4
ag3
ag3
ag2
ag3
ag1
ag3
ag4
ag3
ag3
ag1
ag1
ag3
ag3
ag3
ag3
ag4
ag3
ag3
ag3
ag3
ag3
ag3
ag3
ag1
ag7
ag3
ag3
ag3
ag3
ag7
ag3
ag4
ag3
ag2
ag3
ag3
ag4
ag4
ag3
ag1
ag3
ag7
ag4
ag1
ag3
ag5
ag3
ag4
ag6
ag3
ag2
ag2
ag5
ag1
ag2
ag3
ag4
ag1
ag3
ag3
ag3
ag3
ag2
ag3
ag1
ag2
ag3
ag6
ag1
ag2
ag3
ag1
ag3
ag3
ag1
ag2
ag1
ag1
ag4
ag3
ag3
ag3
ag1
ag3
ag3
ag3
ag3
ag7
ag2
ag2
ag1
ag1
ag3
ag4
ag3
ag4
ag4
ag3
ag4
ag4
ag2
ag1
ag3
ag4
ag3
ag3
ag3
ag3
ag3
ag3
ag3
ag2
ag4
ag3
ag2
ag5
ag4
ag4
ag1
ag2
ag3
ag7
ag3
ag3
ag3
ag3
ag6
ag3
ag3
ag1
ag1
ag3
ag1
ag3
ag2
ag4
ag1
ag1
ag4
ag1
ag3
ag1
ag1
ag2
ag3
ag3
ag2
ag3
ag3
ag1
ag2
ag2
ag3
ag3
ag3
ag3
ag3
ag1
ag6
ag2
ag4
ag4
ag3
ag1
ag3
ag3
ag6
ag3
ag3
ag3
ag2
ag2
ag2
ag1
ag3
ag3
ag3
ag3
ag3
ag1
ag3
ag4
ag1
ag3
ag3
ag1
ag3
ag1
ag3
ag3
ag4
ag3
ag3
ag2
ag3
ag2
ag3
ag3
ag3
ag4
ag4
ag3
ag2
ag4
ag3
ag2
ag4
ag3
ag4
ag4
ag3
ag4
ag3
ag2
ag2
ag3
ag7
ag3
ag7
ag3
ag4
ag4
ag3
ag5
ag3
ag3
ag1
ag4
ag7
ag3
ag4
ag2
ag3
ag3
ag3
ag2
ag1
ag3
ag4
ag4
ag1
ag8
ag3
ag2
ag2
ag2
ag1
ag4
ag3
ag3
ag3
ag2
ag7
ag3
ag4
ag1
ag1
ag4
ag2
ag7
ag4
ag3
ag1
ag1
ag1
ag5
ag3
ag3
ag1
ag2
ag3
ag4
ag4
ag7
ag7
ag1
ag1
ag3
ag3
ag1
ag4
ag3
ag3
ag2
ag3
ag3
ag6
ag3
ag3
ag3
ag1
ag1
ag4
ag3
ag3
ag1
ag1
ag3
ag1
ag4
ag7
ag3
ag1
ag2
ag1
ag3
ag1
ag3
ag2
ag4
ag3
ag4
ag4
ag1
ag2
ag1
ag3
ag3
ag3
ag1
ag1
ag3
ag3
ag1
ag2
ag1
ag3
ag3
ag5
ag4
ag3
ag1
ag2
ag4
ag2
ag2
ag1
ag2
ag2
ag3
ag1
ag4
ag2
ag3
ag2
ag3
ag1
ag1
ag3
ag7
ag4
ag1
ag2
ag3
ag3
ag2
ag3
ag3
ag4
ag3
ag3
ag3
ag4
ag2
ag3
ag4
ag2
ag3
ag3
ag4
ag3
ag3
ag3
ag3
ag4
ag2
ag4
ag3
ag2
ag3
ag1
ag4
ag4
ag3
ag1
ag4
ag3
ag7
ag3
ag3
ag4
ag1
ag2
ag2
ag3
ag2
ag1
ag1
ag3
ag1
ag1
ag2
ag3
ag3
ag3
ag4
ag3
ag3
ag1
ag3
ag3
ag1
ag2
ag3
ag3
ag2
ag3
ag4
ag3
ag1
ag1
ag2
ag2
ag4
ag3
ag3
ag1
ag3
ag4
ag3
ag5
ag3
ag4
ag2
ag4
ag3
ag3
ag3
ag4
ag4
ag5
ag3
ag4
ag4
ag4
ag4
ag2
ag4
ag3
ag3
ag1
ag3
ag4
ag3
ag3
ag3
ag3
ag4
ag4
ag2
ag3
ag1
ag3
ag3
ag1
ag3
ag2
ag3
ag4
ag3
ag1
ag3
ag1
ag1
ag3
ag4
ag3
ag1
ag4
ag3
ag3
ag3
ag2
ag1
ag3
ag7
ag3
ag4
ag3
ag5
ag3
ag3
ag1
ag3
ag4
ag2
ag3
ag7
ag5
ag3
ag4
ag3
ag5
ag3
ag4
ag3
ag6
ag3
ag1
ag3
ag2
ag3
ag3
ag3
ag4
ag3
ag7
ag3
ag3
ag2
ag6
ag5
ag3
ag1
ag1
ag3
ag1
ag2
ag4
ag5
ag3
ag3
ag1
ag3
ag3
ag4
ag3
ag2
ag4
ag1
ag3
ag2
ag2
ag2
ag2
ag1
ag4
ag3
ag3
ag6
ag4
ag3
ag4
ag2
ag1
ag3
ag3
ag3
ag4
ag3
ag2
ag3
ag3
ag4
ag3
ag1
ag1
ag4
ag3
ag3
ag4
ag4
ag4
ag4
ag3
ag2
ag3
ag7
ag3
ag1
ag4
ag7
ag5
ag4
ag3
ag3
ag1
ag2
ag2
ag1
ag3
ag7
ag3
ag1
ag4
ag1
ag3
ag3
ag3
ag3
ag3
ag3
ag5
ag1
ag4
ag3
ag2
ag3
ag3
ag3
ag2
ag3
ag3
ag4
ag3
ag3
ag3
ag2
ag4
ag3
ag3
ag3
ag1
ag3
ag7
ag2
ag3
ag3
ag2
ag4
ag4
ag5
ag3
ag1
ag1
ag2
ag2
ag3
ag3
ag3
ag6
ag3
ag8
ag1
ag3
ag2
ag7
ag2
ag3
ag3
ag1
ag3
ag3
ag3
ag3
ag3
ag3
ag4
ag1
ag3
ag3
ag4
ag3
ag3
ag3
ag3
ag4
ag3
ag3
ag3
ag8
ag3
ag1
ag3
ag4
ag2
ag3
ag2
ag1
ag2
ag3
ag3
ag2
ag3
ag3
ag4
ag2
ag4
ag1
ag1
ag2
ag3
ag4
ag3
ag1
ag1
ag4
ag8
ag4
ag3
ag3
ag4
ag4
ag1
ag3
ag1
ag4
ag1
ag2
ag6
ag3
ag2
ag4
ag3
ag3
ag1
ag3
ag4
ag2
ag1
ag3
ag3
ag2
ag3
ag2
ag3
ag2
ag3
ag3
ag5
ag1
ag4
ag3
ag3
ag3
ag3
ag3
ag3
ag1
ag2
ag2
ag1
ag2
ag1
ag4
ag3
ag1
ag1
ag2
ag4
ag3
ag3
ag1
ag1
ag3
ag4
ag3
ag3
ag3
ag3
ag1
ag3
ag1
ag3
ag1
ag2
ag3
ag4
ag3
ag3
ag2
ag4
ag4
ag2
ag3
ag3
ag3
ag4
ag2
ag3
ag3
ag1
ag3
ag3
ag3
ag7
ag1
ag3
ag3
ag1
ag1
ag2
ag3
ag2
ag3
ag2
ag5
ag8
ag4
ag3
ag3
ag1
ag1
ag7
ag3
ag5
ag4
ag5
ag3
ag4
ag3
ag3
ag1
ag3
ag1
ag3
ag4
ag4
ag5
ag4
ag2
ag3
ag3
ag4
ag3
ag3
ag3
ag1
ag2
ag3
ag4
ag3
ag1
ag6
ag3
ag3
ag3
ag7
ag2
ag1
ag7
ag4
ag3
ag3
ag3
ag2
ag1
ag3
ag3
ag5
ag2
ag3
ag4
ag1
ag4
ag1
ag3
ag3
ag3
ag3
ag3
ag3
ag7
ag5
ag4
ag3
ag3
ag1
ag3
ag1
ag4
ag2
ag2
ag3
ag5
ag1
ag3
ag1
ag3
ag4
ag3
ag2
ag2
ag3
ag1
ag2
ag3
ag2
ag3
ag2
ag1
ag3
ag1
ag2
ag3
ag3
ag3
ag1
ag3
ag1
ag3
ag6
ag3
ag3
ag4
ag2
ag3
ag1
ag3
ag7
ag3
ag4
ag2
ag3
ag3
ag5
ag3
ag7
ag2
ag5
ag7
ag7
ag1
ag3
ag4
ag4
ag4
ag4
ag1
ag3
ag1
ag1
ag7
ag3
ag3
ag2
ag7
ag4
ag3
ag4
ag3
ag4
ag4
ag4
ag4
ag5
ag1
ag1
ag3
ag3
ag6
ag3
ag1
ag2
ag1
ag3
ag4
ag2
ag3
ag2
ag4
ag4
ag1
ag3
ag3
ag6
ag4
ag3
ag3
ag3
ag4
ag3
ag4
ag8
ag2
ag7
ag3
ag3
ag1
ag3
ag3
ag2
ag3
ag3
ag3
ag3
ag1
ag2
ag1
ag3
ag2
ag3
ag3
ag3
ag2
ag1
ag4
ag2
ag2
ag1
ag3
ag2
ag2
ag3
ag3
ag4
ag3
ag3
ag3
ag1
ag1
ag3
ag3
ag6
ag2
ag1
ag3
ag3
ag7
ag3
ag2
ag3
ag2
ag7
ag3
ag3
ag4
ag4
ag3
ag3
ag3
ag2
ag3
ag6
ag4
ag3
ag4
ag5
ag4
ag4
ag3
ag3
ag3
ag1
ag4
ag3
ag4
ag3
ag6
ag3
ag6
ag1
ag2
ag5
ag2
ag3
ag3
ag3
ag3
ag4
ag1
ag7
ag3
ag3
ag2
ag3
ag3
ag3
ag2
ag3
ag3
ag1
ag3
ag3
ag3
ag1
ag3
ag3
ag3
ag3
ag4
ag3
ag1
ag3
ag3
ag1
ag2
ag1
ag7
ag3
ag3
ag1
ag3
ag2
ag1
ag4
ag1
ag7
ag3
ag3
ag6
ag3
ag2
ag3
ag2
ag6
ag1
ag2
ag3
ag3
ag2
ag2
ag4
ag2
ag3
ag2
ag2
ag4
ag1
ag3
ag7
ag4
ag3
ag2
ag6
ag3
ag3
ag3
ag3
ag2
ag3
ag3
ag2
ag3
ag3
ag3
ag3
ag4
ag1
ag3
ag3
ag4
ag2
ag3
ag4
ag5
ag3
ag4
ag1
ag1
ag2
ag6
ag2
ag2
ag4
ag3
ag3
ag3
ag4
ag3
ag3
ag2
ag3
ag4
ag7
ag1
ag3
ag3
ag2
ag3
ag1
ag4
ag3
ag4
ag6
ag3
ag2
ag3
ag3
ag1
ag2
ag3
ag5
ag2
ag1
ag3
ag2
ag3
ag2
ag6
ag8
ag4
ag1
ag4
ag3
ag3
ag3
ag3
ag4
ag1
ag1
ag4
ag3
ag1
ag2
ag3
ag4
ag2
ag2
ag3
ag3
ag2
ag1
ag3
ag2
ag3
ag3
ag3
ag4
ag2
ag3
ag3
ag3
ag2
ag3
ag1
ag3
ag3
ag2
ag3
ag3
ag2
ag3
ag2
ag3
ag4
ag4
ag2
ag3
ag3
ag2
ag4
ag3
ag3
ag4
ag4
ag4
ag7
ag3
ag3
ag1
ag3
ag3
ag1
ag1
ag3
ag3
ag3
ag3
ag3
ag3
ag3
ag3
ag2
ag3
ag6
ag4
ag3
ag3
ag3
ag3
ag1
ag1
ag3
ag3
ag3
ag4
ag4
ag7
ag2
ag1
ag4
ag3
ag3
ag3
ag4
ag3
ag3
ag3
ag3
ag3
ag2
ag7
ag2
ag3
ag3
ag2
ag3
ag3
ag3
ag3
ag3
ag1
ag3
ag2
ag3
ag6
ag1
ag3
ag3
ag2
ag2
ag3
ag3
ag3
ag3
ag4
ag2
ag2
ag3
ag3
ag3
ag1
ag3
ag3
ag3
ag3
ag4
ag1
ag3
ag2
ag2
ag1
ag2
ag8
ag3
ag3
ag3
ag3
ag4
ag2
ag3
ag4
ag3
ag3
ag7
ag4
ag3
ag3
ag4
ag1
ag3
ag1
ag3
ag1
ag7
ag3
ag4
ag1
ag3
ag2
ag3
ag3
ag3
ag3
ag3
ag4
ag2
ag1
ag2
ag7
ag3
ag7
ag1
ag4
ag3
ag2
ag3
ag1
ag1
ag2
ag2
ag1
ag4
ag7
ag2
ag3
ag1
ag3
ag2
ag1
ag1
ag3
ag7
ag4
ag3
ag3
ag3
ag3
ag3
ag2
ag3
ag3
ag1
ag2
ag4
ag3
ag3
ag3
ag5
ag3
ag3
ag5
ag3
ag2
ag3
ag2
ag3
ag3
ag2
ag2
ag5
ag8
ag3
ag4
ag3
ag3
ag2
ag3
ag5
ag4
ag3
ag3
ag2
ag3
ag3
ag4
ag1
ag3
ag4
ag3
ag3
ag3
ag7
ag6
ag3
ag1
ag4
ag3
ag2
ag2
ag3
ag4
ag4
ag4
ag3
ag2
ag3
ag3
ag3
ag3
ag5
ag3
ag1
ag3
ag2
ag3
ag1
ag3
ag3
ag3
ag4
ag4
ag1
ag6
ag1
ag2
ag4
ag2
ag3
ag3
ag7
ag3
ag3
ag3
ag1
ag3
ag7
ag1
ag3
ag3
ag4
ag4
ag3
ag3
ag3
ag3
ag3
ag3
ag4
ag4
ag3
ag4
ag3
ag3
ag4
ag3
ag1
ag2
ag1
ag4
ag3
ag3
ag2
ag3
ag3
ag4
ag2
ag3
ag1
ag2
ag2
ag3
ag2
ag1
ag1
ag3
ag2
ag1
ag4
ag1
ag6
ag4
ag3
ag2
ag3
ag3
ag2
ag3
ag1
ag1
ag4
ag3
ag2
ag1
ag2
ag2
ag3
ag3
ag3
ag4
ag3
ag4
ag3
ag3
ag4
ag4
ag3
ag3
ag4
ag3
ag4
ag3
ag3
ag3
ag1
ag3
ag2
ag2
ag4
ag3
ag3
ag3
ag3
ag2
ag2
ag6
ag3
ag2
ag1
ag3
ag5
ag2
ag4
ag4
ag3
ag4
ag3
ag4
ag3
ag6
ag2
ag3
ag3
ag2
ag1
ag2
ag1
ag2
ag1
ag3
ag4
ag1
ag3
ag3
ag3
ag3
ag1
ag3
ag3
ag3
ag3
ag3
ag3
ag2
ag3
ag2
ag4
ag1
ag1
ag4
ag3
ag7
ag1
ag3
ag3
ag4
ag4
ag3
ag3
ag3
ag1
ag3
ag7
ag6
ag7
ag3
ag4
ag3
ag4
ag2
ag2
ag1
ag4
ag4
ag3
ag4
ag1
ag4
ag5
ag4
ag3
ag1
ag6
ag3
ag1
ag3
ag3
ag3
ag3
ag2
ag3
ag1
ag3
ag2
ag2
ag3
ag3
ag4
ag4
ag3
ag3
ag2
ag3
ag3
ag2
ag4
ag4
ag1
ag3
ag6
ag2
ag3
ag3
ag3
ag3
ag5
ag6
ag1
ag3
ag3
ag2
ag3
ag2
ag2
ag3
ag2
ag3
ag2
ag3
ag1
ag3
ag1
ag4
ag3
ag3
ag7
ag3
ag3
ag3
ag3
ag3
ag2
ag3
ag2
ag3
ag4
ag3
ag3
ag2
ag2
ag3
ag2
ag4
ag2
ag1
ag3
ag4
ag3
ag3
ag1
ag3
ag1
ag3
ag3
ag7
ag3
ag2
ag2
ag2
ag2
ag3
ag3
ag3
ag3
ag3
ag3
ag2
ag2
ag3
ag2
ag2
ag3
ag3
ag2
ag4
ag3
ag1
ag2
ag3
ag3
ag3
ag3
ag4
ag2
ag3
ag3
ag7
ag3
ag4
ag3
ag3
ag1
ag3
ag3
ag5
ag1
ag3
ag3
ag3
ag1
ag6
ag3
ag1
ag7
ag4
ag1
ag2
ag2
ag3
ag4
ag4
ag3
ag3
ag4
ag3
ag3
ag1
ag3
ag1
ag1
ag1
ag3
ag3
ag2
ag2
ag2
ag6
ag3
ag4
ag3
ag3
ag3
ag3
ag2
ag3
ag3
ag3
ag1
ag2
ag1
ag4
ag2
ag2
ag3
ag3
ag5
ag1
ag3
ag3
ag3
ag3
ag1
ag4
ag1
ag4
ag4
ag4
ag2
ag1
ag1
ag1
ag1
ag2
ag2
ag4
ag2
ag3
ag4
ag3
ag3
ag3
ag3
ag1
ag3
ag7
ag1
ag3
ag6
ag1
ag1
ag3
ag4
ag3
ag1
ag5
ag5
ag3
ag4
ag2
ag4
ag3
ag6
ag3
ag2
ag2
ag4
ag3
ag3
ag1
ag3
ag2
ag3
ag3
ag3
ag5
ag8
ag3
ag3
ag7
ag3
ag3
ag3
ag3
ag3
ag4
ag3
ag3
ag1
ag3
ag4
ag1
ag2
ag4
ag3
ag5
ag3
ag2
ag3
ag2
ag8
ag3
ag2
ag1
ag1
ag3
ag1
ag1
ag2
ag3
ag2
ag6
ag3
ag5
ag4
ag1
ag1
ag2
ag4
ag6
ag3
ag2
ag3
ag7
ag3
ag1
ag3
ag3
ag3
ag3
ag7
ag4
ag6
ag8
ag2
ag3
ag1
ag3
ag4
ag3
ag4
ag1
ag2
ag3
ag4
ag2
ag3
ag5
ag3
ag2
ag4
ag5
ag2
ag3
ag2
ag2
ag2
ag3
ag3
ag3
ag4
ag3
ag1
ag3
ag3
ag4
ag5
ag4
ag2
ag3
ag1
ag3
ag3
ag3
ag2
ag3
ag3
ag3
ag2
ag3
ag3
ag3
ag3
ag2
ag4
ag2
ag1
ag1
ag4
ag2
ag3
ag3
ag2
ag3
ag2
ag3
ag3
ag4
ag2
ag4
ag3
ag2
ag4
ag1
ag3
ag3
ag3
ag3
ag2
ag3
ag1
ag3
ag4
ag4
ag3
ag3
ag6
ag5
ag3
ag4
ag3
ag3
ag3
ag3
ag4
ag1
ag2
ag4
ag2
ag4
ag3
ag3
ag3
ag3
ag1
ag3
ag1
ag3
ag3
ag3
ag1
ag3
ag2
ag3
ag1
ag1
ag3
ag2
ag2
ag2
ag4
ag3
ag4
ag3
ag2
ag3
ag2
ag3
ag4
ag3
ag1
ag1
ag3
ag3
ag3
ag3
ag3
ag2
ag3
ag2
ag3
ag3
ag3
ag2
ag4
ag3
ag4
ag1
ag3
ag3
ag2
ag1
ag3
ag3
ag3
ag1
ag3
ag3
ag4
ag2
ag4
ag3
ag3
ag1
ag1
ag3
ag3
ag5
ag3
ag4
ag4
ag3
ag3
ag7
ag3
ag4
ag4
ag4
ag4
ag3
ag3
ag1
ag4
ag4
ag1
ag2
ag3
ag3
ag2
ag1
ag3
ag3
ag5
ag2
ag1
ag4
ag4
ag3
ag4
ag4
ag4
ag4
ag3
ag3
ag3
ag4
ag3
ag1
ag1
ag4
ag3
ag1
ag3
ag2
ag3
ag6
ag3
ag4
ag3
ag1
ag1
ag2
ag3
ag2
ag4
ag3
ag3
ag3
ag3
ag1
ag3
ag3
ag3
ag2
ag2
ag2
ag1
ag1
ag4
ag1
ag3
ag2
ag3
ag3
ag3
ag2
ag3
ag6
ag1
ag3
ag3
ag3
ag1
ag3
ag3
ag3
ag4
ag2
ag3
ag2
ag4
ag3
ag2
ag2
ag3
ag3
ag3
ag4
ag1
ag3
ag3
ag3
ag4
ag2
ag3
ag4
ag1
ag3
ag3
ag1
ag7
ag3
ag3
ag3
ag1
ag1
ag4
ag2
ag3
ag4
ag3
ag2
ag2
ag3
ag1
ag3
ag6
ag3
ag4
ag3
ag4
ag3
ag4
ag1
ag3
ag1
ag3
ag3
ag3
ag3
ag1
ag2
ag1
ag2
ag1
ag3
ag3
ag3
ag3
ag1
ag3
ag4
ag3
ag3
ag3
ag3
ag6
ag3
ag3
ag1
ag3
ag3
ag3
ag3
ag3
ag1
ag1
ag4
ag3
ag4
ag4
ag1
ag4
ag3
ag3
ag3
ag2
ag1
ag2
ag4
ag4
ag1
ag3
ag4
ag3
ag4
ag3
ag2
ag3
ag4
ag1
ag2
ag4
ag4
ag3
ag3
ag3
ag2
ag3
ag2
ag3
ag4
ag3
ag1
ag1
ag2
ag2
ag3
ag1
ag1
ag3
ag3
ag3
ag1
ag3
ag4
ag3
ag2
ag3
ag3
ag1
ag2
ag3
ag3
ag2
ag3
ag7
ag4
ag3
ag3
ag3
ag4
ag3
ag3
ag6
ag3
ag3
ag4
ag3
ag2
ag3
ag2
ag7
ag4
ag3
ag3
ag1
ag3
ag3
ag3
ag4
ag3
ag3
ag3
ag1
ag3
ag1
ag1
ag3
ag1
ag1
ag3
ag3
ag3
ag3
ag4
ag7
ag3
ag1
ag3
ag1
ag5
ag7
ag3
ag4
ag3
ag3
ag4
ag7
ag1
ag3
ag3
ag2
ag3
ag3
ag1
ag3
ag3
ag2
ag3
ag1
ag1
ag3
ag3
ag3
ag4
ag3
ag3
ag3
ag4
ag4
ag3
ag1
ag1
ag3
ag4
ag1
ag3
ag1
ag4
ag4
ag3
ag4
ag2
ag1
ag3
ag4
ag4
ag3
ag1
ag2
ag2
ag3
ag3
ag1
ag4
ag3
ag1
ag3
ag3
ag2
ag4
ag7
ag3
ag2
ag1
ag4
ag1
ag1
ag3
ag3
ag3
ag3
ag3
ag3
ag3
ag7
ag3
ag2
ag3
ag3
ag5
ag4
ag4
ag4
ag7
ag4
ag2
ag3
ag1
ag4
ag2
ag2
ag4
ag4
ag1
ag1
ag4
ag1
ag1
ag2
ag3
ag4
ag3
ag1
ag3
ag3
ag3
ag3
ag3
ag1
ag1
ag4
ag1
ag2
ag5
ag1
ag2
ag3
ag3
ag1
ag2
ag3
ag3
ag3
ag3
ag2
ag3
ag2
ag2
ag2
ag3
ag1
ag3
ag3
ag1
ag3
ag3
ag1
ag3
ag1
ag4
ag2
ag4
ag4
ag3
ag4
ag7
ag3
ag3
ag7
ag1
ag4
ag3
ag4
ag3
ag4
ag2
ag2
ag1
ag5
ag3
ag7
ag1
ag1
ag3
ag1
ag3
ag1
ag3
ag3
ag2
ag1
ag3
ag3
ag3
ag2
ag2
ag3
ag4
ag7
ag1
ag3
ag2
ag3
ag3
ag3
ag2
ag6
ag1
ag2
ag2
ag2
ag3
ag3
ag3
ag2
ag1
ag3
ag3
ag3
ag3
ag2
ag3
ag3
ag2
ag2
ag2
ag2
ag6
ag3
ag2
ag3
ag4
ag7
ag4
ag6
ag3
ag4
ag2
ag2
ag3
ag3
ag1
ag3
ag3
ag3
ag3
ag3
ag4
ag2
ag3
ag3
ag4
ag4
ag1
ag3
ag4
ag7
ag2
ag3
ag3
ag3
ag2
ag1
ag4
ag3
ag4
ag3
ag2
ag1
ag1
ag1
ag3
ag1
ag3
ag3
ag3
ag1
ag3
ag3
ag1
ag3
ag7
ag2
ag7
ag7
ag7
ag1
ag3
ag3
ag2
ag3
ag3
ag4
ag3
ag1
ag3
ag4
ag7
ag8
ag3
ag3
ag3
ag3
ag3
ag2
ag3
ag2
ag4
ag2
ag3
ag2
ag1
ag3
ag3
ag3
ag1
ag1
ag3
ag4
ag6
ag3
ag2
ag3
ag5
ag3
ag3
ag3
ag3
ag3
ag4
ag4
ag2
ag4
ag3
ag6
ag1
ag3
ag2
ag3
ag3
ag3
ag4
ag3
ag1
ag4
ag3
ag1
ag1
ag5
ag2
ag5
ag3
ag1
ag4
ag4
ag2
ag3
ag7
ag3
ag1
ag4
ag1
ag8
ag3
ag5
ag1
ag3
ag3
ag3
ag2
ag2
ag1
ag3
ag7
ag2
ag1
ag3
ag3
ag3
ag3
ag1
ag7
ag1
ag4
ag4
ag3
ag6
ag2
ag1
ag3
ag7
ag1
ag5
ag2
ag2
ag3
ag3
ag4
ag3
ag1
ag3
ag3
ag3
ag3
ag3
ag1
ag3
ag4
ag1
ag3
ag3
ag3
ag3
ag4
ag4
ag1
ag2
ag2
ag3
ag3
ag4
ag7
ag2
ag5
ag4
ag3
ag3
ag3
ag5
ag6
ag3
ag3
ag4
ag2
ag1
ag8
ag1
ag4
ag3
ag4
ag3
ag1
ag3
ag3
ag7
ag1
ag7
ag3
ag4
ag1
ag3
ag1
ag3
ag7
ag2
ag3
ag4
ag3
ag7
ag4
ag4
ag3
ag3
ag7
ag4
ag4
ag3
ag3
ag3
ag3
ag3
ag6
ag4
ag5
ag2
ag1
ag4
ag1
ag1
ag3
ag2
ag2
ag3
ag2
ag3
ag4
ag1
ag3
ag5
ag2
ag5
ag3
ag3
ag3
ag2
ag4
ag1
ag3
ag3
ag1
ag2
ag3
ag4
ag3
ag1
ag3
ag6
ag3
ag4
ag4
ag3
ag3
ag2
ag4
ag3
ag1
ag5
ag3
ag4
ag1
ag2
ag2
ag3
ag3
ag4
ag3
ag2
ag4
ag2
ag3
ag3
ag2
ag1
ag4
ag4
ag3
ag1
ag3
ag3
ag4
ag2
ag3
ag1
ag5
ag3
ag1
ag1
ag4
ag3
ag1
ag2
ag1
ag4
ag1
ag3
ag2
ag3
ag3
ag1
ag4
ag4
ag1
ag4
ag1
ag1
ag4
ag7
ag3
ag3
ag3
ag2
ag4
ag1
ag3
ag7
ag4
ag3
ag3
ag3
ag3
ag3
ag5
ag3
ag4
ag3
ag3
ag4
ag3
ag3
ag3
ag3
ag3
ag4
ag3
ag3
ag4
ag3
ag2
ag4
ag1
ag5
ag7
ag4
ag2
ag4
ag3
ag1
ag3
ag2
ag3
ag3
ag3
ag3
ag3
ag2
ag3
ag2
ag3
ag3
ag1
ag3
ag4
ag3
ag2
ag3
ag3
ag3
ag3
ag3
ag3
ag4
ag2
ag3
ag2
ag1
ag3
ag3
ag4
ag4
ag3
ag4
ag3
ag2
ag4
ag3
ag1
ag3
ag1
ag3
ag3
ag3
ag1
ag1
ag3
ag3
ag3
ag3
ag4
ag7
ag3
ag1
ag7
ag4
ag1
ag1
ag3
ag4
ag3
ag2
ag2
ag4
ag3
ag3
ag1
ag3
ag3
ag3
ag2
ag3
ag3
ag2
ag3
ag3
ag5
ag3
ag7
ag3
ag4
ag3
ag3
ag3
ag4
ag1
ag1
ag3
ag3
ag2
ag1
ag4
ag3
ag3
ag2
ag4
ag2
ag3
ag3
ag3
ag2
ag2
ag3
ag3
ag1
ag2
ag3
ag4
ag3
ag3
ag4
ag2
ag3
ag4
ag3
ag1
ag2
ag3
ag2
ag1
ag3
ag3
ag3
ag4
ag7
ag3
ag4
ag4
ag2
ag6
ag3
ag2
ag2
ag3
ag1
ag7
ag4
ag3
ag3
ag4
ag2
ag3
ag3
ag4
ag4
ag3
ag3
ag2
ag6
ag3
ag7
ag3
ag3
ag3
ag3
ag3
ag4
ag4
ag3
ag3
ag3
ag3
ag2
ag3
ag4
ag4
ag3
ag3
ag4
ag4
ag4
ag3
ag2
ag3
ag1
ag3
ag2
ag4
ag3
ag1
ag1
ag3
ag3
ag3
ag3
ag3
ag2
ag2
ag3
ag1
ag4
ag3
ag3
ag2
ag1
ag1
ag3
ag2
ag3
ag7
ag4
ag6
ag7
ag3
ag4
ag6
ag5
ag3
ag4
ag3
ag2
ag1
ag7
ag3
ag7
ag4
ag5
ag3
ag1
ag3
ag4
ag3
ag3
ag3
ag3
ag3
ag7
ag4
ag8
ag3
ag3
ag2
ag1
ag1
ag1
ag3
ag3
ag2
ag6
ag2
ag3
ag3
ag2
ag4
ag1
ag4
ag6
ag3
ag3
ag1
ag4
ag3
ag2
ag1
ag2
ag7
ag4
ag1
ag2
ag5
ag2
ag7
ag4
ag1
ag3
ag1
ag4
ag3
ag3
ag2
ag2
ag1
ag3
ag2
ag7
ag3
ag2
ag3
ag3
ag3
ag1
ag3
ag3
ag4
ag4
ag6
ag7
ag3
ag3
ag3
ag7
ag3
ag3
ag2
ag1
ag1
ag3
ag3
ag4
ag4
ag6
ag3
ag4
ag3
ag3
ag3
ag3
ag3
ag4
ag2
ag1
ag4
ag1
ag3
ag3
ag3
ag2
ag8
ag6
ag1
ag3
ag2
ag3
ag1
ag3
ag3
ag4
ag2
ag6
ag2
ag3
ag3
ag3
ag2
ag3
ag4
ag1
ag3
ag4
ag3
ag3
ag3
ag2
ag3
ag4
ag1
ag3
ag3
ag3
ag3
ag3
ag2
ag3
ag3
ag3
ag3
ag1
ag3
ag3
ag3
ag3
ag1
ag3
ag7
ag1
ag4
ag4
ag3
ag2
ag1
ag3
ag3
ag1
ag3
ag3
ag1
ag1
ag3
ag3
ag1
ag3
ag1
ag1
ag3
ag6
ag1
ag3
ag3
ag8
ag3
ag3
ag3
ag1
ag4
ag1
ag5
ag2
ag4
ag4
ag3
ag1
ag3
ag2
ag1
ag3
ag3
ag3
ag4
ag1
ag1
ag3
ag2
ag1
ag3
ag3
ag6
ag3
ag2
ag3
ag1
ag3
ag2
ag4
ag3
ag1
ag4
ag4
ag2
ag4
ag3
ag4
ag5
ag2
ag4
ag3
ag4
ag3
ag3
ag1
ag2
ag3
ag2
ag3
ag3
ag3
ag1
ag4
ag3
ag7
ag3
ag7
ag3
ag3
ag4
ag3
ag3
ag1
ag6
ag3
ag1
ag3
ag3
ag5
ag2
ag4
ag3
ag3
ag1
ag3
ag2
ag7
ag6
ag6
ag4
ag3
ag3
ag3
ag3
ag3
ag2
ag3
ag1
ag1
ag1
ag3
ag7
ag3
ag4
ag3
ag3
ag1
ag4
ag3
ag4
ag2
ag4
ag3
ag3
ag1
ag1
ag3
ag3
ag3
ag3
ag1
ag2
ag3
ag4
ag4
ag3
ag3
ag3
ag2
ag4
ag1
ag3
ag7
ag5
ag7
ag3
ag3
ag3
ag2
ag3
ag8
ag7
ag3
ag3
ag3
ag2
ag6
ag1
ag1
ag7
ag1
ag3
ag4
ag2
ag4
ag3
ag3
ag3
ag4
ag3
ag4
ag3
ag4
ag2
ag3
ag7
ag3
ag4
ag3
ag1
ag4
ag1
ag3
ag3
ag3
ag3
ag3
ag1
ag3
ag3
ag3
ag2
ag2
ag2
ag3
ag4
ag2
ag3
ag4
ag3
ag3
ag2
ag1
ag4
ag3
ag2
ag3
ag4
ag6
ag3
ag8
ag7
ag3
ag6
ag3
ag1
ag7
ag3
ag3
ag3
ag2
ag2
ag4
ag1
ag4
ag1
ag3
ag2
ag3
ag3
ag1
ag1
ag3
ag3
ag1
ag4
ag3
ag7
ag3
ag3
ag4
ag3
ag3
ag3
ag6
ag3
ag3
ag4
ag4
ag2
ag1
ag2
ag3
ag3
ag1
ag3
ag1
ag3
ag4
ag3
ag4
ag3
ag3
ag2
ag2
ag3
ag3
ag2
ag7
ag3
ag4
ag1
ag2
ag3
ag3
ag3
ag3
ag3
ag4
ag1
ag1
ag3
ag3
ag3
ag6
ag3
ag1
ag4
ag5
ag3
ag3
ag3
ag4
ag3
ag4
ag3
ag1
ag2
ag2
ag2
ag4
ag3
ag3
ag4
ag3
ag1
ag3
ag3
ag3
ag2
ag3
ag3
ag5
ag1
ag3
ag2
ag3
ag1
ag4
ag2
ag2
ag3
ag1
ag2
ag3
ag2
ag1
ag2
ag3
ag3
ag4
ag2
ag1
ag5
ag1
ag8
ag3
ag3
ag2
ag3
ag4
ag3
ag3
ag1
ag3
ag3
ag2
ag3
ag1
ag3
ag2
ag4
ag2
ag2
ag3
ag2
ag2
ag2
ag1
ag5
ag3
ag3
ag3
ag7
ag3
ag3
ag3
ag2
ag4
ag4
ag5
ag4
ag3
ag2
ag2
ag1
ag3
ag3
ag3
ag2
ag2
ag1
ag3
ag3
ag2
ag4
ag2
ag3
ag3
ag3
ag2
ag6
ag1
ag2
ag4
ag3
ag1
ag2
ag3
ag7
ag3
ag3
ag6
ag3
ag2
ag3
ag3
ag2
ag4
ag3
ag3
ag1
ag3
ag1
ag3
ag3
ag4
ag3
ag3
ag3
ag4
ag3
ag2
ag4
ag2
ag1
ag1
ag4
ag1
ag1
ag1
ag1
ag3
ag2
ag3
ag3
ag3
ag3
ag4
ag3
ag3
ag3
ag3
ag4
ag7
ag3
ag2
ag3
ag3
ag3
ag2
ag4
ag2
ag2
ag2
ag3
ag7
ag4
ag3
ag8
ag3
ag4
ag6
ag3
ag3
ag4
ag1
ag3
ag3
ag4
ag3
ag3
ag3
ag3
ag1
ag3
ag4
ag3
ag1
ag3
ag7
ag4
ag3
ag7
ag2
ag4
ag1
ag3
ag3
ag3
ag3
ag3
ag1
ag2
ag2
ag1
ag2
ag2
ag2
ag3
ag2
ag3
ag3
ag3
ag1
ag3
ag4
ag3
ag3
ag4
ag3
ag2
ag2
ag3
ag3
ag3
ag3
ag4
ag5
ag2
ag3
ag4
ag1
ag5
ag3
ag3
ag4
ag3
ag8
ag1
ag1
ag5
ag1
ag3
ag3
ag3
ag1
ag2
ag3
ag3
ag4
ag5
ag3
ag3
ag3
ag3
ag2
ag3
ag4
ag3
ag1
ag6
ag3
ag4
ag1
ag3
ag4
ag2
ag4
ag2
ag3
ag1
ag3
ag1
ag4
ag1
ag3
ag3
ag1
ag1
ag3
ag3
ag3
ag3
ag3
ag4
ag4
ag1
ag4
ag3
ag4
ag3
ag2
ag4
ag4
ag3
ag1
ag3
ag1
ag3
ag3
ag1
ag4
ag1
ag3
ag3
ag4
ag3
ag3
ag1
ag3
ag1
ag2
ag3
ag2
ag3
ag6
ag2
ag3
ag3
ag3
ag1
ag3
ag1
ag4
ag1
ag3
ag3
ag1
ag2
ag4
ag1
ag2
ag3
ag2
ag1
ag3
ag3
ag3
ag3
ag3
ag2
ag4
ag5
ag1
ag3
ag3
ag2
ag5
ag4
ag2
ag4
ag2
ag2
ag2
ag4
ag3
ag3
ag4
ag2
ag1
ag3
ag3
ag4
ag2
ag4
ag4
ag3
ag3
ag4
ag3
ag3
ag3
ag3
ag3
ag5
ag2
ag4
ag3
ag4
ag1
ag2
ag4
ag3
ag3
ag3
ag4
ag5
ag7
ag7
ag6
ag1
ag4
ag2
ag3
ag4
ag3
ag2
ag3
ag4
ag3
ag3
ag3
ag1
ag3
ag3
ag1
ag4
ag2
ag2
ag3
ag3
ag2
ag3
ag7
ag4
ag3
ag4
ag3
ag6
ag3
ag1
ag2
ag2
ag2
ag3
ag3
ag4
ag3
ag6
ag4
ag7
ag4
ag2
ag1
ag3
ag2
ag2
ag2
ag3
ag4
ag3
ag4
ag6
ag3
ag1
ag3
ag3
ag2
ag3
ag3
ag1
ag3
ag2
ag1
ag3
ag4
ag3
ag3
ag3
ag4
ag3
ag3
ag3
ag3
ag4
ag2
ag3
ag3
ag4
ag4
ag1
ag2
ag3
ag3
ag1
ag4
ag2
ag3
ag2
ag7
ag2
ag4
ag3
ag2
ag3
ag3
ag3
ag3
ag4
ag7
ag4
ag1
ag3
ag2
ag1
ag1
ag3
ag3
ag3
ag3
ag2
ag7
ag2
ag3
ag3
ag4
ag2
ag4
ag3
ag3
ag1
ag4
ag2
ag4
ag3
ag1
ag5
ag3
ag2
ag3
ag3
ag3
ag4
ag1
ag4
ag3
ag3
ag3
ag3
ag3
ag3
ag4
ag3
ag3
ag3
ag1
ag2
ag6
ag4
ag1
ag4
ag3
ag6
ag7
ag5
ag3
ag3
ag3
ag3
ag3
ag3
ag3
ag5
ag1
ag3
ag1
ag3
ag2
ag4
ag4
ag7
ag3
ag2
ag3
ag4
ag3
ag6
ag1
ag3
ag6
ag2
ag3
ag6
ag1
ag3
ag3
ag1
ag1
ag1
ag3
ag6
ag3
ag3
ag3
ag7
ag4
ag3
ag4
ag1
ag4
ag4
ag1
ag3
ag1
ag4
ag3
ag3
ag1
ag6
ag4
ag1
ag3
ag3
ag2
ag2
ag1
ag3
ag4
ag2
ag6
ag4
ag4
ag3
ag3
ag3
ag1
ag1
ag6
ag1
ag3
ag3
ag3
ag3
ag4
ag1
ag3
ag2
ag2
ag3
ag3
ag8
ag3
ag3
ag3
ag2
ag2
ag3
ag3
ag4
ag1
ag3
ag1
ag3
ag2
ag3
ag3
ag3
ag1
ag3
ag3
ag7
ag3
ag3
ag3
ag2
ag4
ag4
ag3
ag3
ag1
ag2
ag3
ag7
ag3
ag3
ag3
ag1
ag3
ag1
ag3
ag3
ag2
ag4
ag3
ag3
ag3
ag4
ag1
ag4
ag1
ag4
ag2
ag3
ag4
ag1
ag3
ag3
ag3
ag3
ag2
ag3
ag1
ag2
ag1
ag4
ag3
ag3
ag2
ag7
ag1
ag1
ag3
ag3
ag3
ag3
ag3
ag1
ag5
ag1
ag3
ag3
ag2
ag1
ag3
ag3
ag3
ag2
ag1
ag3
ag3
ag1
ag2
ag3
ag4
ag4
ag3
ag3
ag2
ag1
ag3
ag1
ag1
ag1
ag4
ag2
ag1
ag3
ag2
ag1
ag3
ag1
ag3
ag1
ag6
ag4
ag3
ag3
ag2
ag4
ag3
ag3
ag3
ag3
ag7
ag4
ag2
ag2
ag3
ag3
ag3
ag4
ag2
ag5
ag3
ag4
ag4
ag3
ag1
ag2
ag1
ag3
ag4
ag1
ag3
ag3
ag2
ag2
ag1
ag3
ag3
ag3
ag5
ag3
ag1
ag1
ag1
ag1
ag1
ag4
ag3
ag1
ag2
ag2
ag3
ag7
ag1
ag3
ag1
ag4
ag2
ag4
ag4
ag4
ag3
ag2
ag3
ag3
ag1
ag2
ag7
ag4
ag4
ag4
ag7
ag1
ag3
ag3
ag3
ag6
ag3
ag3
ag4
ag3
ag2
ag4
ag2
ag3
ag3
ag3
ag3
ag3
ag4
ag2
ag3
ag3
ag4
ag4
ag3
ag3
ag1
ag4
ag4
ag3
ag3
ag3
ag6
ag3
ag8
ag3
ag3
ag4
ag3
ag2
ag2
ag4
ag4
ag2
ag2
ag5
ag3
ag4
ag7
ag2
ag3
ag3
ag6
ag2
ag3
ag2
ag1
ag3
ag3
ag3
ag3
ag3
ag2
ag3
ag3
ag3
ag3
ag4
ag3
ag3
ag4
ag3
ag3
ag3
ag3
ag2
ag3
ag4
ag3
ag2
ag4
ag6
ag2
ag3
ag3
ag3
ag2
ag3
ag3
ag4
ag3
ag3
ag1
ag1
ag3
ag1
ag2
ag1
ag3
ag3
ag2
ag2
ag1
ag3
ag1
ag4
ag3
ag8
ag1
ag3
ag3
ag3
ag3
ag4
ag2
ag2
ag2
ag3
ag3
ag3
ag3
ag3
ag7
ag1
ag3
ag4
ag2
ag3
ag1
ag1
ag2
ag3
ag1
ag2
ag2
ag2
ag6
ag3
ag3
ag2
ag3
ag3
ag1
ag3
ag3
ag3
ag3
ag6
ag4
ag2
ag3
ag2
ag3
ag2
ag3
ag2
ag1
ag7
ag2
ag3
ag4
ag3
ag6
ag3
ag3
ag4
ag7
ag3
ag3
ag2
ag4
ag2
ag5
ag7
ag3
ag2
ag1
ag2
ag3
ag3
ag3
ag3
ag3
ag2
ag3
ag4
ag1
ag3
ag3
ag1
ag3
ag3
ag3
ag6
ag3
ag3
ag7
ag3
ag1
ag4
ag3
ag4
ag3
ag6
ag2
ag4
ag3
ag7
ag4
ag2
ag3
ag4
ag4
ag7
ag2
ag1
ag7
ag2
ag3
ag2
ag4
ag4
ag3
ag1
ag3
ag2
ag3
ag5
ag2
ag2
ag1
ag2
ag2
ag3
ag2
ag1
ag3
ag3
ag1
ag3
ag2
ag7
ag3
ag3
ag2
ag4
ag3
ag2
ag2
ag2
ag3
ag1
ag3
ag3
ag4
ag3
ag6
ag2
ag5
ag3
ag2
ag5
ag3
ag5
ag3
ag1
ag4
ag3
ag2
ag3
ag3
ag7
ag3
ag3
ag1
ag2
ag3
ag3
ag7
ag2
ag3
ag2
ag3
ag2
ag1
ag3
ag3
ag1
ag3
ag7
ag7
ag4
ag3
ag3
ag3
ag3
ag4
ag3
ag5
ag3
ag6
ag1
ag3
ag4
ag3
ag3
ag1
ag2
ag3
ag3
ag2
ag1
ag3
ag3
ag1
ag1
ag2
ag3
ag3
ag3
ag1
ag3
ag4
ag3
ag2
ag1
ag1
ag3
ag3
ag3
ag3
ag3
ag3
ag3
ag2
ag7
ag2
ag3
ag3
ag2
ag4
ag3
ag2
ag2
ag2
ag4
ag3
ag1
ag2
ag3
ag2
ag5
ag4
ag3
ag1
ag3
ag2
ag2
ag4
ag2
ag3
ag2
ag3
ag3
ag3
ag4
ag1
ag3
ag3
ag3
ag3
ag3
ag2
ag7
ag3
ag3
ag3
ag1
ag3
ag3
ag7
ag3
ag3
ag2
ag1
ag2
ag3
ag4
ag3
ag4
ag4
ag7
ag4
ag3
ag3
ag1
ag1
ag3
ag3
ag3
ag3
ag4
ag1
ag3
ag2
ag3
ag4
ag2
ag3
ag1
ag3
ag3
ag1
ag2
ag3
ag4
ag1
ag3
ag3
ag2
ag3
ag1
ag2
ag3
ag3
ag3
ag4
ag3
ag3
ag3
ag3
ag3
ag2
ag4
ag3
ag3
ag1
ag3
ag6
ag3
ag4
ag2
ag3
ag1
ag3
ag4
ag3
ag3
ag3
ag3
ag6
ag3
ag3
ag8
ag2
ag3
ag4
ag3
ag1
ag3
ag3
ag4
ag1
ag3
ag4
ag3
ag3
ag3
ag1
ag3
ag1
ag3
ag1
ag3
ag3
ag4
ag2
ag1
ag3
ag3
ag1
ag3
ag4
ag3
ag3
ag3
ag1
ag3
ag1
ag3
ag1
ag2
ag3
ag7
ag2
ag4
ag2
ag4
ag4
ag7
ag2
ag3
ag3
ag3
ag3
ag4
ag3
ag5
ag4
ag3
ag3
ag1
ag3
ag3
ag1
ag2
ag4
ag4
ag3
ag1
ag3
ag7
ag2
ag3
ag7
ag3
ag4
ag3
ag4
ag3
ag2
ag3
ag3
ag3
ag3
ag3
ag2
ag1
ag2
ag2
ag2
ag3
ag1
ag2
ag3
ag3
ag2
ag7
ag3
ag3
ag1
ag1
ag1
ag3
ag3
ag1
ag3
ag2
ag2
ag2
ag4
ag2
ag3
ag1
ag3
ag2
ag3
ag2
ag1
ag1
ag3
ag3
ag4
ag1
ag2
ag3
ag4
ag4
ag4
ag3
ag3
ag1
ag3
ag1
ag7
ag1
ag3
ag2
ag2
ag4
ag1
ag3
ag2
ag3
ag3
ag4
ag4
ag1
ag3
ag7
ag5
ag4
ag3
ag3
ag1
ag7
ag3
ag4
ag1
ag4
ag3
ag2
ag1
ag2
ag3
ag3
ag2
ag4
ag2
ag4
ag5
ag3
ag3
ag1
ag1
ag2
ag1
ag2
ag8
ag1
ag7
ag1
ag4
ag3
ag4
ag3
ag2
ag1
ag2
ag5
ag3
ag2
ag1
ag2
ag3
ag4
ag2
ag1
ag2
ag3
ag3
ag3
ag3
ag1
ag4
ag3
ag1
ag3
ag3
ag3
ag2
ag3
ag3
ag1
ag1
ag3
ag3
ag3
ag1
ag3
ag1
ag3
ag2
ag3
ag2
ag4
ag3
ag3
ag1
ag3
ag3
ag3
ag1
ag4
ag2
ag3
ag3
ag3
ag3
ag1
ag3
ag4
ag2
ag3
ag1
ag5
ag3
ag3
ag3
ag3
ag3
ag2
ag4
ag3
ag3
ag3
ag1
ag1
ag3
ag3
ag3
ag2
ag1
ag3
ag7
ag1
ag3
ag7
ag3
ag3
ag4
ag2
ag3
ag3
ag3
ag2
ag4
ag2
ag3
ag3
ag3
ag3
ag2
ag3
ag2
ag4
ag3
ag1
ag2
ag8
ag4
ag4
ag1
ag7
ag1
ag3
ag1
ag2
ag4
ag8
ag3
ag3
ag1
ag1
ag3
ag3
ag6
ag3
ag3
ag3
ag3
ag2
ag4
ag7
ag2
ag3
ag3
ag1
ag2
ag3
ag3
ag5
ag3
ag1
ag2
ag2
ag3
ag4
ag2
ag4
ag4
ag4
ag3
ag3
ag3
ag2
ag4
ag3
ag3
ag3
ag3
ag4
ag3
ag3
ag3
ag2
ag2
ag1
ag3
ag3
ag3
ag4
ag3
ag4
ag2
ag3
ag3
ag4
ag3
ag3
ag3
ag2
ag2
ag3
ag2
ag3
ag7
ag4
ag3
ag3
ag3
ag3
ag6
ag2
ag3
ag3
ag1
ag4
ag1
ag3
ag3
ag4
ag3
ag3
ag4
ag4
ag3
ag3
ag3
ag1
ag3
ag3
ag7
ag1
ag1
ag1
ag5
ag4
ag3
ag1
ag1
ag1
ag3
ag4
ag2
ag3
ag4
ag3
ag2
ag4
ag3
ag3
ag3
ag3
ag2
ag3
ag3
ag3
ag1
ag2
ag3
ag7
ag4
ag4
ag3
ag2
ag1
ag3
ag1
ag3
ag2
ag4
ag3
ag3
ag2
ag2
ag3
ag3
ag4
ag4
ag3
ag3
ag3
ag3
ag3
ag3
ag4
ag2
ag3
ag2
ag1
ag6
ag4
ag3
ag3
ag2
ag3
ag4
ag1
ag2
ag3
ag3
ag2
ag2
ag3
ag1
ag4
ag2
ag4
ag3
ag7
ag1
ag4
ag3
ag2
ag3
ag5
ag3
ag3
ag3
ag2
ag1
ag6
ag3
ag3
ag3
ag2
ag2
ag3
ag3
ag2
ag3
ag3
ag3
ag3
ag2
ag4
ag3
ag5
ag5
ag2
ag3
ag3
ag3
ag3
ag3
ag3
ag2
ag3
ag7
ag3
ag3
ag2
ag4
ag1
ag6
ag3
ag3
ag3
ag1
ag3
ag3
ag3
ag4
ag3
ag3
ag4
ag4
ag3
ag1
ag3
ag1
ag3
ag2
ag1
ag2
ag3
ag3
ag3
ag1
ag3
ag1
ag3
ag3
ag3
ag1
ag3
ag3
ag3
ag3
ag3
ag4
ag2
ag3
ag1
ag2
ag3
ag2
ag5
ag3
ag6
ag3
ag3
ag4
ag3
ag5
ag1
ag3
ag3
ag3
ag2
ag1
ag3
ag1
ag3
ag1
ag2
ag3
ag2
ag2
ag3
ag2
ag2
ag2
ag2
ag4
ag3
ag2
ag8
ag3
ag2
ag2
ag3
ag7
ag1
ag3
ag3
ag3
ag1
ag1
ag1
ag3
ag2
ag4
ag3
ag3
ag3
ag1
ag3
ag3
ag2
ag4
ag3
ag4
ag3
ag7
ag1
ag4
ag1
ag2
ag3
ag3
ag1
ag3
ag3
ag1
ag1
ag2
ag3
ag3
ag4
ag3
ag2
ag5
ag2
ag7
ag1
ag3
ag3
ag3
ag5
ag2
ag4
ag3
ag3
ag3
ag1
ag4
ag1
ag4
ag4
ag4
ag3
ag1
ag4
ag4
ag3
ag1
ag3
ag3
ag3
ag1
ag2
ag6
ag3
ag2
ag1
ag2
ag3
ag1
ag3
ag1
ag2
ag1
ag3
ag3
ag3
ag2
ag4
ag3
ag4
ag4
ag3
ag2
ag2
ag3
ag2
ag1
ag4
ag2
ag1
ag4
ag3
ag2
ag2
ag3
ag6
ag2
ag2
ag3
ag3
ag1
ag3
ag1
ag3
ag3
ag3
ag4
ag1
ag3
ag3
ag2
ag2
ag3
ag2
ag3
ag3
ag1
ag1
ag2
ag4
ag3
ag3
ag4
ag2
ag3
ag3
ag2
ag3
ag4
ag6
ag2
ag2
ag3
ag3
ag1
ag2
ag6
ag3
ag3
ag3
ag4
ag1
ag2
ag2
ag3
ag3
ag3
ag3
ag2
ag1
ag8
ag1
ag3
ag4
ag2
ag3
ag3
ag1
ag1
ag2
ag2
ag3
ag3
ag4
ag3
ag3
ag1
ag1
ag3
ag4
ag4
ag7
ag1
ag5
ag3
ag3
ag4
ag2
ag2
ag5
ag4
ag3
ag2
ag3
ag3
ag1
ag3
ag3
ag1
ag3
ag1
ag4
ag3
ag3
ag3
ag4
ag1
ag4
ag3
ag3
ag3
ag5
ag3
ag3
ag4
ag2
ag2
ag1
ag3
ag1
ag3
ag4
ag3
ag6
ag3
ag3
ag4
ag3
ag3
ag3
ag4
ag3
ag2
ag4
ag3
ag6
ag3
ag8
ag4
ag3
ag3
ag3
ag3
ag6
ag2
ag4
ag3
ag4
ag1
ag1
ag3
ag2
ag1
ag1
ag4
ag2
ag3
ag5
ag1
ag3
ag4
ag3
ag3
ag3
ag1
ag7
ag3
ag1
ag4
ag4
ag3
ag2
ag3
ag3
ag1
ag3
ag2
ag4
ag1
ag4
ag3
ag3
ag4
ag7
ag1
ag3
ag2
ag3
ag2
ag3
ag2
ag2
ag2
ag5
ag3
ag2
ag1
ag2
ag3
ag1
ag3
ag5
ag3
ag2
ag1
ag2
ag3
ag7
ag3
ag2
ag3
ag3
ag2
ag3
ag3
ag3
ag7
ag3
ag6
ag3
ag3
ag4
ag1
ag2
ag3
ag3
ag1
ag3
ag3
ag1
ag1
ag3
ag3
ag2
ag3
ag3
ag4
ag3
ag3
ag1
ag1
ag4
ag3
ag1
ag3
ag1
ag7
ag2
ag4
ag3
ag4
ag4
ag3
ag1
ag3
ag4
ag4
ag3
ag3
ag3
ag3
ag2
ag7
ag4
ag3
ag4
ag3
ag3
ag4
ag3
ag3
ag2
ag3
ag7
ag2
ag3
ag2
ag3
ag3
ag2
ag1
ag3
ag2
ag1
ag3
ag4
ag1
ag1
ag3
ag3
ag1
ag4
ag3
ag3
ag1
ag4
ag5
ag4
ag3
ag1
ag1
ag1
ag4
ag4
ag2
ag3
ag3
ag2
ag4
ag4
ag3
ag2
ag4
ag3
ag4
ag4
ag3
ag3
ag3
ag3
ag3
ag4
ag3
ag2
ag3
ag7
ag3
ag3
ag3
ag4
ag4
ag2
ag3
ag8
ag1
ag3
ag3
ag3
ag3
ag4
ag1
ag2
ag1
ag3
ag3
ag3
ag2
ag3
ag1
ag1
ag2
ag6
ag3
ag2
ag3
ag1
ag2
ag4
ag4
ag7
ag1
ag4
ag3
ag3
ag7
ag3
ag3
ag3
ag1
ag3
ag2
ag3
ag1
ag3
ag3
ag6
ag3
ag4
ag2
ag2
ag4
ag4
ag3
ag3
ag3
ag2
ag3
ag3
ag3
ag2
ag3
ag7
ag3
ag3
ag3
ag3
ag4
ag4
ag3
ag3
ag2
ag3
ag3
ag4
ag3
ag4
ag3
ag3
ag4
ag3
ag2
ag8
ag1
ag2
ag3
ag2
ag3
ag3
ag4
ag8
ag2
ag4
ag5
ag3
ag3
ag2
ag3
ag3
ag3
ag3
ag3
ag2
ag4
ag1
ag3
ag3
ag4
ag3
ag1
ag1
ag3
ag3
ag2
ag4
ag4
ag7
ag3
ag3
ag3
ag3
ag3
ag4
ag1
ag3
ag3
ag1
ag3
ag1
ag5
ag1
ag2
ag1
ag4
ag4
ag2
ag2
ag2
ag3
ag3
ag4
ag1
ag1
ag3
ag3
ag1
ag3
ag4
ag3
ag2
ag3
ag5
ag4
ag1
ag2
ag4
ag3
ag2
ag3
ag1
ag3
ag3
ag3
ag3
ag2
ag4
ag3
ag2
ag3
ag3
ag2
ag3
ag3
ag3
ag3
ag3
ag1
ag3
ag1
ag3
ag2
ag2
ag3
ag3
ag3
ag7
ag1
ag1
ag3
ag2
ag1
ag7
ag5
ag4
ag3
ag1
ag1
ag7
ag3
ag4
ag6
ag3
ag4
ag6
ag3
ag4
ag1
ag2
ag1
ag4
ag3
ag3
ag3
ag4
ag2
ag3
ag3
ag1
ag1
ag1
ag3
ag3
ag3
ag1
ag1
ag2
ag1
ag3
ag5
ag4
ag4
ag1
ag3
ag3
ag2
ag1
ag5
ag3
ag3
ag3
ag7
ag1
ag3
ag1
ag2
ag2
ag4
ag3
ag2
ag3
ag1
ag3
ag3
ag7
ag3
ag1
ag1
ag4
ag1
ag7
ag2
ag4
ag3
ag7
ag3
ag1
ag2
ag3
ag3
ag1
ag3
ag4
ag3
ag2
ag2
ag2
ag3
ag3
ag8
ag3
ag2
ag3
ag1
ag5
ag3
ag6
ag3
ag1
ag3
ag3
ag1
ag3
ag3
ag2
ag4
ag4
ag6
ag1
ag3
ag4
ag3
ag4
ag3
ag4
ag3
ag3
ag3
ag1
ag3
ag2
ag3
ag3
ag2
ag3
ag6
ag3
ag3
ag3
ag2
ag2
ag1
ag4
ag3
ag4
ag3
ag4
ag1
ag4
ag3
ag3
ag3
ag3
ag2
ag3
ag4
ag3
ag4
ag2
ag1
ag4
ag3
ag3
ag1
ag2
ag3
ag2
ag6
ag4
ag2
ag4
ag3
ag3
ag2
ag2
ag3
ag2
ag3
ag1
ag5
ag3
ag3
ag6
ag3
ag4
ag7
ag3
ag3
ag3
ag3
ag3
ag2
ag3
ag1
ag4
ag1
ag3
ag3
ag1
ag3
ag4
ag1
ag2
ag4
ag3
ag3
ag3
ag3
ag4
ag3
ag2
ag6
ag4
ag3
ag3
ag4
ag1
ag1
ag3
ag4
ag1
ag2
ag3
ag3
ag3
ag3
ag1
ag3
ag2
ag2
ag3
ag1
ag1
ag1
ag4
ag3
ag2
ag2
ag1
ag1
ag3
ag3
ag4
ag3
ag7
ag4
ag3
ag7
ag2
ag2
ag2
ag2
ag2
ag2
ag1
ag3
ag2
ag3
ag3
ag2
ag3
ag4
ag3
ag2
ag5
ag3
ag2
ag3
ag3
ag1
ag3
ag3
ag3
ag3
ag2
ag3
ag3
ag1
ag1
ag3
ag4
ag1
ag3
ag3
ag7
ag3
ag3
ag7
ag3
ag3
ag3
ag2
ag1
ag3
ag3
ag3
ag3
ag3
ag3
ag3
ag2
ag1
ag3
ag3
ag3
ag2
ag3
ag6
ag1
ag1
ag1
ag1
ag4
ag4
ag1
ag2
ag3
ag2
ag3
ag3
ag4
ag4
ag3
ag3
ag2
ag1
ag1
ag3
ag3
ag3
ag2
ag1
ag3
ag4
ag3
ag4
ag3
ag2
ag7
ag2
ag3
ag7
ag3
ag2
ag3
ag3
ag3
ag3
ag2
ag5
ag3
ag3
ag3
ag4
ag3
ag1
ag3
ag3
ag3
ag2
ag3
ag3
ag1
ag3
ag3
ag3
ag2
ag2
ag3
ag2
ag2
ag1
ag3
ag1
ag3
ag3
ag3
ag4
ag2
ag2
ag1
ag3
ag3
ag3
ag3
ag4
ag4
ag3
ag3
ag4
ag3
ag5
ag3
ag3
ag1
ag1
ag3
ag3
ag4
ag3
ag3
ag8
ag3
ag3
ag4
ag2
ag4
ag1
ag2
ag4
ag3
ag1
ag4
ag3
ag7
ag3
ag3
ag2
ag1
ag1
ag3
ag5
ag2
ag3
ag1
ag1
ag1
ag3
ag4
ag3
ag2
ag2
ag4
ag2
ag3
ag2
ag4
ag1
ag2
ag3
ag3
ag4
ag1
ag4
ag4
ag3
ag3
ag3
ag3
ag1
ag1
ag4
ag1
ag3
ag4
ag4
ag7
ag3
ag6
ag2
ag2
ag3
ag2
ag4
ag3
ag3
ag3
ag1
ag3
ag4
ag1
ag3
ag3
ag3
ag1
ag1
ag4
ag3
ag4
ag3
ag4
ag1
ag3
ag3
ag2
ag4
ag3
ag3
ag1
ag2
ag3
ag3
ag4
ag4
ag4
ag4
ag2
ag3
ag3
ag3
ag3
ag2
ag3
ag5
ag1
ag1
ag7
ag3
ag1
ag3
ag2
ag3
ag1
ag3
ag2
ag7
ag3
ag3
ag3
ag2
ag3
ag1
ag4
ag3
ag3
ag3
ag6
ag8
ag1
ag2
ag3
ag1
ag4
ag3
ag3
ag1
ag4
ag3
ag3
ag3
ag4
ag3
ag3
ag1
ag4
ag1
ag3
ag3
ag3
ag3
ag4
ag7
ag3
ag3
ag3
ag3
ag4
ag3
ag4
ag4
ag1
ag3
ag1
ag2
ag3
ag2
ag3
ag3
ag4
ag3
ag3
ag3
ag3
ag3
ag3
ag3
ag2
ag3
ag2
ag4
ag3
ag4
ag2
ag3
ag6
ag3
ag3
ag3
ag3
ag3
ag1
ag3
ag2
ag4
ag6
ag1
ag3
ag4
ag2
ag4
ag3
ag6
ag1
ag4
ag3
ag4
ag4
ag3
ag3
ag3
ag2
ag4
ag4
ag4
ag1
ag3
ag3
ag6
ag3
ag1
ag3
ag3
ag2
ag2
ag2
ag3
ag3
ag4
ag7
ag3
ag3
ag1
ag3
ag5
ag2
ag4
ag4
ag3
ag3
ag3
ag3
ag3
ag3
ag1
ag4
ag2
ag3
ag3
ag1
ag3
ag1
ag3
ag4
ag4
ag3
ag3
ag4
ag7
ag3
ag1
ag7
ag2
ag3
ag3
ag4
ag2
ag3
ag4
ag1
ag1
ag3
ag3
ag4
ag2
ag3
ag4
ag4
ag3
ag4
ag3
ag3
ag1
ag1
ag3
ag2
ag2
ag2
ag1
ag1
ag3
ag3
ag1
ag4
ag3
ag3
ag1
ag3
ag4
ag1
ag3
ag1
ag1
ag3
ag3
ag3
ag7
ag2
ag4
ag3
ag3
ag3
ag2
ag3
ag4
ag6
ag1
ag3
ag4
ag7
ag2
ag2
ag2
ag2
ag7
ag3
ag4
ag3
ag1
ag2
ag4
ag2
ag3
ag3
ag1
ag3
ag4
ag2
ag3
ag1
ag3
ag5
ag3
ag4
ag3
ag8
ag3
ag4
ag2
ag3
ag3
ag1
ag3
ag4
ag1
ag3
ag2
ag1
ag4
ag4
ag1
ag3
ag3
ag1
ag3
ag3
ag4
ag2
ag3
ag3
ag2
ag1
ag6
ag2
ag2
ag3
ag3
ag1
ag3
ag3
ag3
ag5
ag4
ag1
ag1
ag1
ag3
ag4
ag2
ag3
ag4
ag7
ag4
ag3
ag1
ag3
ag1
ag3
ag3
ag3
ag3
ag3
ag2
ag3
ag3
ag3
ag3
ag3
ag1
ag2
ag7
ag3
ag4
ag2
ag3
ag2
ag3
ag4
ag2
ag5
ag3
ag3
ag3
ag1
ag1
ag3
ag3
ag3
ag3
ag3
ag3
ag4
ag2
ag5
ag6
ag1
ag1
ag3
ag2
ag1
ag6
ag1
ag4
ag3
ag6
ag7
ag3
ag1
ag3
ag3
ag3
ag3
ag7
ag1
ag1
ag4
ag3
ag2
ag3
ag2
ag3
ag4
ag2
ag3
ag1
ag2
ag3
ag4
ag1
ag2
ag3
ag2
ag1
ag4
ag3
ag3
ag3
ag1
ag5
ag1
ag6
ag4
ag2
ag1
ag7
ag3
ag2
ag4
ag4
ag3
ag7
ag3
ag2
ag2
ag3
ag3
ag3
ag1
ag3
ag2
ag2
ag2
ag3
ag1
ag5
ag1
ag2
ag3
ag2
ag3
ag2
ag1
ag1
ag3
ag1
ag3
ag3
ag2
ag1
ag7
ag1
ag4
ag7
ag3
ag3
ag3
ag3
ag3
ag6
ag2
ag2
ag1
ag4
ag2
ag2
ag4
ag7
ag4
ag2
ag3
ag3
ag4
ag3
ag2
ag1
ag4
ag4
ag1
ag2
ag4
ag4
ag2
ag1
ag4
ag2
ag2
ag2
ag1
ag2
ag3
ag3
ag3
ag3
ag3
ag3
ag1
ag3
ag3
ag3
ag3
ag3
ag3
ag2
ag3
ag2
ag1
ag3
ag6
ag2
ag2
ag3
ag4
ag3
ag3
ag3
ag1
ag2
ag1
ag1
ag3
ag4
ag4
ag3
ag3
ag4
ag3
ag3
ag6
ag2
ag3
ag3
ag3
ag3
ag4
ag1
ag1
ag4
ag3
ag4
ag1
ag3
ag3
ag4
ag3
ag3
ag2
ag2
ag2
ag3
ag4
ag4
ag4
ag2
ag1
ag1
ag3
ag4
ag2
ag4
ag3
ag3
ag2
ag4
ag3
ag1
ag3
ag2
ag1
ag3
ag3
ag2
ag2
ag4
ag4
ag3
ag3
ag1
ag3
ag3
ag3
ag3
ag3
ag2
ag7
ag2
ag4
ag3
ag3
ag3
ag3
ag3
ag4
ag3
ag1
ag2
ag3
ag7
ag3
ag4
ag1
ag3
ag4
ag3
ag2
ag4
ag3
ag2
ag2
ag2
ag4
ag4
ag2
ag1
ag4
ag5
ag7
ag3
ag6
ag3
ag3
ag4
ag4
ag3
ag1
ag4
ag3
ag3
ag2
ag2
ag2
ag3
ag3
ag3
ag3
ag2
ag2
ag3
ag3
ag1
ag2
ag4
ag3
ag5
ag2
ag6
ag1
ag1
ag1
ag1
ag3
ag6
ag4
ag3
ag2
ag2
ag4
ag3
ag4
ag1
ag3
ag1
ag3
ag3
ag2
ag3
ag3
ag3
ag3
ag2
ag2
ag3
ag3
ag2
ag5
ag1
ag3
ag2
ag2
ag4
ag1
ag3
ag3
ag3
ag2
ag3
ag3
ag3
ag3
ag3
ag3
ag3
ag3
ag3
ag3
ag2
ag3
ag2
ag4
ag3
ag3
ag3
ag2
ag3
ag2
ag3
ag3
ag4
ag3
ag3
ag2
ag2
ag3
ag3
ag5
ag6
ag6
ag3
ag3
ag4
ag1
ag3
ag2
ag1
ag3
ag1
ag3
ag2
ag3
ag1
ag2
ag3
ag4
ag4
ag1
ag3
ag3
ag2
ag3
ag2
ag4
ag2
ag3
ag3
ag2
ag3
ag4
ag3
ag3
ag3
ag4
ag1
ag2
ag3
ag3
ag4
ag6
ag2
ag2
ag3
ag2
ag1
ag4
ag3
ag2
ag3
ag2
ag2
ag2
ag3
ag3
ag4
ag3
ag3
ag3
ag3
ag4
ag3
ag3
ag3
ag2
ag1
ag3
ag3
ag2
ag2
ag2
ag2
ag3
ag2
ag5
ag2
ag3
ag1
ag2
ag1
ag1
ag3
ag1
ag2
ag4
ag3
ag2
ag4
ag3
ag2
ag3
ag3
ag1
ag3
ag1
ag2
ag7
ag1
ag3
ag1
ag3
ag3
ag1
ag3
ag2
ag3
ag3
ag1
ag1
ag3
ag3
ag2
ag3
ag2
ag1
ag3
ag2
ag3
ag3
ag1
ag1
ag3
ag2
ag7
ag3
ag3
ag3
ag3
ag3
ag2
ag2
ag4
ag3
ag3
ag8
ag3
ag2
ag3
ag3
ag3
ag1
ag4
ag3
ag1
ag7
ag3
ag3
ag3
ag1
ag4
ag1
ag1
ag3
ag3
ag4
ag2
ag1
ag2
ag3
ag3
ag4
ag2
ag3
ag3
ag3
ag1
ag5
ag2
ag3
ag5
ag2
ag2
ag3
ag2
ag2
ag2
ag1
ag3
ag4
ag4
ag3
ag3
ag3
ag1
ag4
ag3
ag3
ag3
ag1
ag5
ag3
ag1
ag1
ag3
ag3
ag1
ag3
ag3
ag3
ag2
ag7
ag7
ag8
ag3
ag3
ag7
ag3
ag5
ag3
ag7
ag4
ag2
ag4
ag1
ag3
ag3
ag3
ag2
ag3
ag3
ag4
ag4
ag3
ag3
ag4
ag4
ag2
ag3
ag7
ag6
ag3
ag4
ag3
ag1
ag3
ag3
ag3
ag1
ag3
ag2
ag3
ag3
ag2
ag3
ag3
ag3
ag3
ag7
ag3
ag2
ag3
ag2
ag2
ag3
ag1
ag1
ag3
ag3
ag3
ag1
ag2
ag3
ag1
ag2
ag4
ag3
ag3
ag3
ag4
ag3
ag3
ag2
ag3
ag3
ag3
ag1
ag3
ag2
ag7
ag2
ag1
ag3
ag3
ag3
ag3
ag3
ag4
ag4
ag2
ag3
ag2
ag2
ag3
ag3
ag7
ag3
ag4
ag3
ag3
ag2
ag1
ag4
ag3
ag1
ag2
ag3
ag3
ag3
ag3
ag2
ag3
ag4
ag1
ag3
ag1
ag3
ag3
ag1
ag3
ag1
ag6
ag3
ag3
ag2
ag4
ag3
ag2
ag3
ag3
ag1
ag4
ag1
ag1
ag1
ag3
ag4
ag5
ag3
ag3
ag3
ag4
ag4
ag4
ag2
ag2
ag4
ag2
ag3
ag3
ag3
ag3
ag3
ag3
ag2
ag3
ag3
ag3
ag7
ag2
ag4
ag2
ag3
ag1
ag3
ag3
ag2
ag3
ag3
ag1
ag2
ag1
ag3
ag3
ag4
ag4
ag4
ag4
ag3
ag3
ag1
ag3
ag2
ag1
ag7
ag3
ag3
ag4
ag2
ag4
ag2
ag2
ag2
ag3
ag4
ag4
ag2
ag2
ag3
ag3
ag3
ag4
ag3
ag3
ag3
ag3
ag3
ag2
ag3
ag3
ag7
ag3
ag3
ag2
ag1
ag3
ag3
ag3
ag2
ag2
ag3
ag1
ag3
ag3
ag3
ag6
ag4
ag3
ag3
ag3
ag3
ag7
ag2
ag4
ag3
ag4
ag1
ag3
ag1
ag3
ag3
ag3
ag2
ag3
ag1
ag1
ag3
ag2
ag5
ag3
ag3
ag3
ag2
ag3
ag3
ag2
ag3
ag1
ag3
ag1
ag3
ag2
ag6
ag1
ag7
ag3
ag3
ag3
ag4
ag4
ag3
ag2
ag6
ag4
ag1
ag3
ag3
ag1
ag3
ag3
ag6
ag4
ag2
ag3
ag3
ag2
ag3
ag4
ag2
ag4
ag4
ag3
ag3
ag3
ag3
ag2
ag1
ag1
ag3
ag2
ag1
ag4
ag3
ag7
ag3
ag4
ag3
ag3
ag3
ag7
ag1
ag2
ag1
ag2
ag2
ag3
ag4
ag3
ag3
ag1
ag3
ag3
ag3
ag1
ag3
ag3
ag1
ag4
ag2
ag3
ag3
ag3
ag3
ag4
ag2
ag3
ag3
ag3
ag4
ag3
ag1
ag3
ag4
ag5
ag3
ag1
ag2
ag4
ag3
ag3
ag3
ag3
ag3
ag5
ag6
ag1
ag6
ag3
ag3
ag3
ag3
ag3
ag2
ag2
ag3
ag4
ag7
ag2
ag4
ag1
ag1
ag1
ag3
ag4
ag2
ag2
ag3
ag4
ag4
ag3
ag4
ag3
ag1
ag2
ag5
ag2
ag3
ag1
ag3
ag3
ag2
ag3
ag1
ag2
ag4
ag1
ag3
ag4
ag1
ag2
ag1
ag2
ag4
ag4
ag3
ag2
ag3
ag3
ag1
ag3
ag3
ag1
ag3
ag3
ag3
ag1
ag3
ag2
ag4
ag2
ag6
ag3
ag3
ag1
ag7
ag3
ag3
ag3
ag4
ag1
ag4
ag5
ag3
ag3
ag1
ag3
ag3
ag3
ag1
ag1
ag2
ag1
ag3
ag4
ag1
ag3
ag6
ag3
ag4
ag3
ag1
ag6
ag3
ag3
ag7
ag3
ag3
ag4
ag3
ag2
ag4
ag3
ag3
ag2
ag3
ag3
ag3
ag3
ag3
ag1
ag3
ag1
ag3
ag7
ag3
ag3
a.