(lp0
(S'clothing'
p1
S'What is the person in the image wearing ?'
p2
S'striped polo shirt'
p3
I1
tp4
a(S'scene'
p5
S'Choose the option that best describes the scene ?'
p6
S'seated position'
p7
I1
tp8
a(g5
g6
S'motorcycle track'
p9
I1
tp10
a(S'other'
p11
S'Which of the following is present in the image ?'
p12
S'dumbbell'
p13
I1
tp14
a(g11
g12
S'several bags different sizes'
p15
I1
tp16
a(S'people'
p17
S'How many people are present in the image ?'
p18
S'five youngsters'
p19
I1
tp20
a(g11
g12
S'website'
p21
I1
tp22
a(g11
g12
S'recent weeks'
p23
I1
tp24
a(g11
g12
S'brown strap'
p25
I1
tp26
a(g11
g12
S'desk lamp'
p27
I1
tp28
a(g5
g6
S'outdoor market'
p29
I1
tp30
a(g11
g12
S'television'
p31
I1
tp32
a(g11
g12
S'green barrier'
p33
I1
tp34
a(g11
g12
S'door'
p35
I1
tp36
a(g5
g6
S'sewing factory'
p37
I1
tp38
a(g1
g2
S'long yellow jacket'
p39
I1
tp40
a(g11
g12
S'row yellow chairs'
p41
I1
tp42
a(g11
g12
S'walk'
p43
I1
tp44
a(g5
g6
S'merchandise jewelry kiosk'
p45
I1
tp46
a(g11
g12
S'orange snow shovel'
p47
I1
tp48
a(g5
g6
S'train track'
p49
I1
tp50
a(g1
g2
S'sports jacket'
p51
I1
tp52
a(g11
g12
S'groceries'
p53
I1
tp54
a(S'vehicles'
p55
S'Which type of vehicle(s) are present in the image ?'
p56
S'bike'
p57
I1
tp58
a(g1
g2
S'traditional finnish clothing'
p59
I1
tp60
a(g11
g12
S'canadian maple leaf'
p61
I1
tp62
a(g5
g6
S'busy city'
p63
I1
tp64
a(g1
g2
S'blue sports clothes'
p65
I1
tp66
a(g11
g12
S'new york'
p67
I1
tp68
a(g11
g12
S'100 meter dash'
p69
I1
tp70
a(g11
g12
S'various figurines'
p71
I1
tp72
a(g11
g12
S'water noodle'
p73
I1
tp74
a(g1
g2
S'2 different socks'
p75
I1
tp76
a(g11
g12
S'charity'
p77
I1
tp78
a(g11
g12
S'buddhist hindu decorations'
p79
I1
tp80
a(g5
g6
S'school hallway'
p81
I1
tp82
a(g11
g12
S'flyer'
p83
I1
tp84
a(g5
g6
S'leafless forest'
p85
I1
tp86
a(g11
g12
S'large community mural'
p87
I1
tp88
a(g11
g12
S'look'
p89
I1
tp90
a(g11
g12
S'reaction'
p91
I1
tp92
a(g5
g6
S'asian seafood market'
p93
I1
tp94
a(g5
g6
S'damp city street'
p95
I1
tp96
a(g11
g12
S'jars goods'
p97
I1
tp98
a(g11
g12
S'black neon colors'
p99
I1
tp100
a(g11
g12
S'orange traffic cone'
p101
I1
tp102
a(g17
S'How many people are present in the image ?'
p103
S'three roommates'
p104
I1
tp105
a(g5
g6
S'grim day'
p106
I1
tp107
a(g11
g12
S'laptop keyboard'
p108
I1
tp109
a(g5
g6
S'middle mountains'
p110
I1
tp111
a(g11
g12
S'public square'
p112
I1
tp113
a(g1
g2
S'pair shorts'
p114
I1
tp115
a(g55
g56
S'window public transportation vehicle'
p116
I1
tp117
a(g5
g6
S'view intersection'
p118
I1
tp119
a(g11
g12
S'two heavy bags ice'
p120
I1
tp121
a(g11
g12
S'blurred photograph'
p122
I1
tp123
a(g11
g12
S'area full boxes'
p124
I1
tp125
a(g55
g56
S'emergency vehicle'
p126
I1
tp127
a(g5
g6
S'rodeo event'
p128
I1
tp129
a(g1
g2
S'white tote bag'
p130
I1
tp131
a(g11
g12
S'someone films'
p132
I1
tp133
a(g11
g12
S'rowboat'
p134
I1
tp135
a(g11
g12
S'white strip'
p136
I1
tp137
a(g11
g12
S'horrific artwork'
p138
I1
tp139
a(g11
g12
S'bike race'
p140
I1
tp141
a(g11
g12
S'dinosaur'
p142
I1
tp143
a(g11
g12
S'woman load'
p144
I1
tp145
a(g5
g6
S'starting blocks'
p146
I1
tp147
a(g11
g12
S'burgundy'
p148
I1
tp149
a(g1
g2
S'ladies helmet'
p150
I1
tp151
a(g11
g12
S'white framed glass canopy'
p152
I1
tp153
a(g1
g2
S'different color clothing'
p154
I1
tp155
a(g11
g12
S'mountain bike spokes'
p156
I1
tp157
a(g1
g2
S'darth vader outfit'
p158
I1
tp159
a(g11
g12
S'checkerboard'
p160
I1
tp161
a(g11
g12
S'applauding'
p162
I1
tp163
a(g11
g12
S'barbecues'
p164
I1
tp165
a(g5
g6
S'scarf pass'
p166
I1
tp167
a(g11
g12
S'goodies'
p168
I1
tp169
a(g1
g2
S'loincloth'
p170
I1
tp171
a(g5
g6
S'bottom small waterfall'
p172
I1
tp173
a(g11
g12
S'jet'
p174
I1
tp175
a(g17
S'How many people are present in the image ?'
p176
S'two adolescent girls'
p177
I1
tp178
a(g11
g12
S'vegetables'
p179
I1
tp180
a(g1
g2
S'blue yarmulke'
p181
I1
tp182
a(g1
g2
S'dark colored clothing'
p183
I1
tp184
a(g17
S'How many people are present in the image ?'
p185
S'two older boy scouts'
p186
I1
tp187
a(g11
g12
S'trash receptacle'
p188
I1
tp189
a(g5
g6
S'water flow'
p190
I1
tp191
a(g5
g6
S'monkey bars'
p192
I1
tp193
a(g5
g6
S'roundabout'
p194
I1
tp195
a(S'bodyparts'
p196
S'Identify the bodypart present in the image ?'
p197
S'boy heads'
p198
I1
tp199
a(g1
g2
S'blue white striped sweater'
p200
I1
tp201
a(g1
g2
S'two hats'
p202
I1
tp203
a(g11
g12
S'red long board'
p204
I1
tp205
a(g196
g197
S'leg'
p206
I1
tp207
a(g5
g6
S'art museum'
p208
I1
tp209
a(g1
g2
S'blue brown shirt'
p210
I1
tp211
a(g5
g6
S'ankle'
p212
I1
tp213
a(g11
g12
S'bright red stage lights'
p214
I1
tp215
a(g11
g12
S'one moves'
p216
I1
tp217
a(g17
S'How many people are present in the image ?'
p218
S'one cyclist'
p219
I1
tp220
a(g5
g6
S'waterfront street'
p221
I1
tp222
a(g11
g12
S'yellow caution tape'
p223
I1
tp224
a(g11
g12
S'clothes rack'
p225
I1
tp226
a(g11
g12
S'processes'
p227
I1
tp228
a(g11
g12
S'red tomato'
p229
I1
tp230
a(g1
g2
S'black backwards baseball cap'
p231
I1
tp232
a(g5
g6
S'convention center'
p233
I1
tp234
a(g1
g2
S'tan khaki shorts'
p235
I1
tp236
a(g17
S'How many people are present in the image ?'
p237
S'two asian chefs'
p238
I1
tp239
a(g5
g6
S'busy asian street'
p240
I1
tp241
a(g5
g6
S'small brook'
p242
I1
tp243
a(g11
g12
S'oriental style'
p244
I1
tp245
a(g1
g2
S'stylish clothes'
p246
I1
tp247
a(g11
g12
S'flags'
p248
I1
tp249
a(g5
g6
S'another event'
p250
I1
tp251
a(g5
g6
S'rogue waves'
p252
I1
tp253
a(g1
g2
S'orange'
p254
I1
tp255
a(g11
g12
S'orange roadwork sign'
p256
I1
tp257
a(g11
g12
S'christmas gifts'
p258
I1
tp259
a(g5
g6
S'bright blue cloudy sky'
p260
I1
tp261
a(g11
g12
S'big toy'
p262
I1
tp263
a(g1
g2
S'short skirts'
p264
I1
tp265
a(g1
g2
S'black cowboy hat'
p266
I1
tp267
a(g1
g2
S'blue hairnets'
p268
I1
tp269
a(g11
g12
S'stair rail'
p270
I1
tp271
a(g11
g12
S'subway window'
p272
I1
tp273
a(g11
g12
S'black advertising banner'
p274
I1
tp275
a(g1
g2
S'tan sports jacket'
p276
I1
tp277
a(g11
g12
S'ou'
p278
I1
tp279
a(g11
g12
S'camouflage crawls'
p280
I1
tp281
a(g5
g6
S'mouth open'
p282
I1
tp283
a(g11
g12
S'couch'
p284
I1
tp285
a(g5
g6
S'steps large stone building'
p286
I1
tp287
a(g5
g6
S'puppet shop'
p288
I1
tp289
a(g11
g12
S'child post'
p290
I1
tp291
a(g1
g2
S'yankees cap'
p292
I1
tp293
a(g11
g12
S'four wheeler'
p294
I1
tp295
a(g11
g12
S'shade canopy'
p296
I1
tp297
a(g1
g2
S'ken'
p298
I1
tp299
a(g11
g12
S'splits'
p300
I1
tp301
a(g55
g56
S'rapid transit'
p302
I1
tp303
a(g55
g56
S'toy trucks'
p304
I1
tp305
a(g17
S'How many people are present in the image ?'
p306
S'two kayakers'
p307
I1
tp308
a(g11
g12
S'boat race'
p309
I1
tp310
a(g17
S'How many people are present in the image ?'
p311
S'one person'
p312
I1
tp313
a(g11
g12
S'snowboard'
p314
I1
tp315
a(g5
g6
S'crowded coffee shop'
p316
I1
tp317
a(g5
g6
S'white seat'
p318
I1
tp319
a(g17
S'How many people are present in the image ?'
p320
S'two chefs'
p321
I1
tp322
a(g11
g12
S'french names'
p323
I1
tp324
a(g1
g2
S'green soccer outfit'
p325
I1
tp326
a(g11
g12
S'two displays'
p327
I1
tp328
a(g11
g12
S'push ups'
p329
I1
tp330
a(g1
g2
S'rugby uniform'
p331
I1
tp332
a(g11
g12
S'exercise pylons'
p333
I1
tp334
a(g5
g6
S'rough waves'
p335
I1
tp336
a(g5
g6
S'splashed water'
p337
I1
tp338
a(g1
g2
S'gray button shirt'
p339
I1
tp340
a(g5
g6
S'car seat'
p341
I1
tp342
a(g11
g12
S'meat'
p343
I1
tp344
a(g11
g12
S'cuffs'
p345
I1
tp346
a(g11
g12
S'bike ride race'
p347
I1
tp348
a(g11
g12
S'different editing techniques'
p349
I1
tp350
a(g5
g6
S'city road'
p351
I1
tp352
a(g11
g12
S'group speed ice skaters race'
p353
I1
tp354
a(g1
g2
S'blue yellow bodysuit'
p355
I1
tp356
a(g11
g12
S'today'
p357
I1
tp358
a(g1
g2
S'red striped soccer shirt'
p359
I1
tp360
a(g11
g12
S'broken couch'
p361
I1
tp362
a(g196
g197
S'concerned faces'
p363
I1
tp364
a(g11
g12
S'foreign festival'
p365
I1
tp366
a(g11
g12
S'pleasure'
p367
I1
tp368
a(g11
g12
S'foods'
p369
I1
tp370
a(g5
g6
S'waterfront'
p371
I1
tp372
a(g1
g2
S'red swimsuit'
p373
I1
tp374
a(g11
g12
S'runner '
p375
I1
tp376
a(g196
g197
S'fathers shoulders'
p377
I1
tp378
a(g5
g6
S'amusement park state fair'
p379
I1
tp380
a(S'instruments'
p381
S'Select the instruments shown in the image ?'
p382
S'variety musical instruments'
p383
I1
tp384
a(g1
g2
S'businessman '
p385
I1
tp386
a(g11
g12
S'blue netted course'
p387
I1
tp388
a(g11
g12
S'turquoise shirt grocery'
p389
I1
tp390
a(g1
g2
S'dirty white collared shirt'
p391
I1
tp392
a(g11
g12
S'travels'
p393
I1
tp394
a(g1
g2
S'long maroon hat'
p395
I1
tp396
a(g11
g12
S'anticipated path football'
p397
I1
tp398
a(g11
g12
S'soap'
p399
I1
tp400
a(g11
g12
S'stuffed animal prizes'
p401
I1
tp402
a(g11
g12
S'spoon'
p403
I1
tp404
a(g5
g6
S'happy day'
p405
I1
tp406
a(g5
g6
S'sandy park area'
p407
I1
tp408
a(g11
g12
S'old fashioned'
p409
I1
tp410
a(g1
g2
S'martial arts uniforms'
p411
I1
tp412
a(g55
g56
S'grocery cart'
p413
I1
tp414
a(g11
g12
S'temporary structure'
p415
I1
tp416
a(g11
g12
S'ax'
p417
I1
tp418
a(g1
g2
S'red flower print skirt'
p419
I1
tp420
a(g11
g12
S'gated housing complex'
p421
I1
tp422
a(g1
g2
S'red bathing suit'
p423
I1
tp424
a(g1
g2
S'black jackets'
p425
I1
tp426
a(g5
g6
S'archaeological dig'
p427
I1
tp428
a(g11
g12
S'two scientists research biology'
p429
I1
tp430
a(g11
g12
S'sorts'
p431
I1
tp432
a(g11
g12
S'sit'
p433
I1
tp434
a(g11
g12
S'papers'
p435
I1
tp436
a(g11
g12
S'ford'
p437
I1
tp438
a(g1
g2
S'skimpy clothing'
p439
I1
tp440
a(g11
g12
S'beach ball toys'
p441
I1
tp442
a(g1
g2
S'three pairs granny panties'
p443
I1
tp444
a(g11
g12
S'dirty wall'
p445
I1
tp446
a(g11
g12
S'orange cloth'
p447
I1
tp448
a(g11
g12
S'love jesus'
p449
I1
tp450
a(g11
g12
S'asian language'
p451
I1
tp452
a(g5
g6
S'crowded street fair'
p453
I1
tp454
a(g5
g6
S'burlap sack'
p455
I1
tp456
a(g1
g2
S'garter belt'
p457
I1
tp458
a(g11
g12
S'supplies'
p459
I1
tp460
a(g11
g12
S'oil painting'
p461
I1
tp462
a(g381
g382
S'lawn instrument'
p463
I1
tp464
a(g5
g6
S'main area'
p465
I1
tp466
a(g1
g2
S'blue shoes'
p467
I1
tp468
a(g11
g12
S'road cones'
p469
I1
tp470
a(g11
g12
S'fire pit'
p471
I1
tp472
a(g1
g2
S'white uniform'
p473
I1
tp474
a(g1
g2
S'houston uniform'
p475
I1
tp476
a(g11
g12
S'several blurred human figures'
p477
I1
tp478
a(g11
g12
S'offensive line'
p479
I1
tp480
a(g11
g12
S'slalom course'
p481
I1
tp482
a(g5
g6
S'high rise building'
p483
I1
tp484
a(g11
g12
S'led sign'
p485
I1
tp486
a(g5
g6
S'street bridge'
p487
I1
tp488
a(g11
g12
S'underpants'
p489
I1
tp490
a(g11
g12
S'others'
p491
I1
tp492
a(g11
g12
S'microphone'
p493
I1
tp494
a(g381
g382
S'clarinet'
p495
I1
tp496
a(g11
g12
S'backhoe'
p497
I1
tp498
a(g11
g12
S'steps'
p499
I1
tp500
a(g5
g6
S'pink reach'
p501
I1
tp502
a(g11
g12
S'loud'
p503
I1
tp504
a(g1
g2
S'pink umbrella'
p505
I1
tp506
a(g196
g197
S'ten fingers'
p507
I1
tp508
a(g5
g6
S'empty seats'
p509
I1
tp510
a(g5
g6
S'scenic bridge'
p511
I1
tp512
a(g381
g382
S'taiko drum'
p513
I1
tp514
a(g5
g6
S'back home'
p515
I1
tp516
a(g196
g197
S'whole body'
p517
I1
tp518
a(g11
g12
S'homemade clock'
p519
I1
tp520
a(g5
g6
S'common room'
p521
I1
tp522
a(g5
g6
S'break'
p523
I1
tp524
a(g196
g197
S'crocodile '
p525
I1
tp526
a(g55
g56
S'three wheeled bikes'
p527
I1
tp528
a(g11
g12
S'one shows'
p529
I1
tp530
a(g1
g2
S'blue vest'
p531
I1
tp532
a(g5
g6
S'cloudy sky'
p533
I1
tp534
a(g11
g12
S'wall vhs'
p535
I1
tp536
a(g5
g6
S'yellow room'
p537
I1
tp538
a(g11
g12
S'snowy hillside'
p539
I1
tp540
a(g1
g2
S'white hat'
p541
I1
tp542
a(g11
g12
S'warrior equipment'
p543
I1
tp544
a(g11
g12
S'wooden cross'
p545
I1
tp546
a(g5
g6
S'old looking building'
p547
I1
tp548
a(g11
g12
S'new spring seeds'
p549
I1
tp550
a(g11
g12
S'fast food'
p551
I1
tp552
a(g5
g6
S'urban residential area'
p553
I1
tp554
a(g1
g2
S'blue'
p555
I1
tp556
a(g11
g12
S'glasses combs'
p557
I1
tp558
a(g11
g12
S'busy'
p559
I1
tp560
a(g11
g12
S'morning ride'
p561
I1
tp562
a(g1
g2
S'dress shirt'
p563
I1
tp564
a(g11
g12
S'carving'
p565
I1
tp566
a(g11
g12
S'head'
p567
I1
tp568
a(g11
g12
S'ref mid'
p569
I1
tp570
a(g11
g12
S'arizona'
p571
I1
tp572
a(g11
g12
S'every'
p573
I1
tp574
a(g5
g6
S'flooded street'
p575
I1
tp576
a(g11
g12
S'scary movie flyer'
p577
I1
tp578
a(g1
g2
S'messenger bags'
p579
I1
tp580
a(g5
g6
S'apparently oktoberfest'
p581
I1
tp582
a(g1
g2
S'white karate uniform'
p583
I1
tp584
a(g55
g56
S'parachute glider'
p585
I1
tp586
a(g1
g2
S'rainbow colored bikini tops'
p587
I1
tp588
a(g11
g12
S'fisherman '
p589
I1
tp590
a(g17
S'How many people are present in the image ?'
p591
S'two boy'
p592
I1
tp593
a(g5
g6
S'view mountain'
p594
I1
tp595
a(S'animals'
p596
S'How many animals are present in the image ?'
p597
S'one dog'
p598
I1
tp599
a(g17
S'How many people are present in the image ?'
p600
S'one veteran guy'
p601
I1
tp602
a(g5
g6
S'view family '
p603
I1
tp604
a(g196
g197
S'elderly gentleman '
p605
I1
tp606
a(g1
g2
S'dark hat'
p607
I1
tp608
a(g11
g12
S'soccer net'
p609
I1
tp610
a(g11
g12
S'lounge & grill'
p611
I1
tp612
a(g11
g12
S'dumpsters'
p613
I1
tp614
a(g11
g12
S'white tarp'
p615
I1
tp616
a(g5
g6
S'street scene'
p617
I1
tp618
a(g55
g56
S'coffee cart'
p619
I1
tp620
a(g11
g12
S'soccer skills'
p621
I1
tp622
a(g11
g12
S'miles'
p623
I1
tp624
a(g5
g6
S'cool '
p625
I1
tp626
a(g11
g12
S'fancy door'
p627
I1
tp628
a(g5
g6
S'food court'
p629
I1
tp630
a(g5
g6
S'child outside'
p631
I1
tp632
a(g11
g12
S'side half pipe'
p633
I1
tp634
a(g11
g12
S'skateboard bowl'
p635
I1
tp636
a(g11
g12
S'fireworks'
p637
I1
tp638
a(g11
g12
S'single pole'
p639
I1
tp640
a(g11
g12
S'solider'
p641
I1
tp642
a(g11
g12
S'wall'
p643
I1
tp644
a(g1
g2
S'stocking cap'
p645
I1
tp646
a(g5
g6
S'snow fence'
p647
I1
tp648
a(g11
g12
S'green shirt paint'
p649
I1
tp650
a(g11
g12
S'george stephanopoulos'
p651
I1
tp652
a(g5
g6
S'white building'
p653
I1
tp654
a(g1
g2
S'yellow striped shirt'
p655
I1
tp656
a(g1
g2
S'brown red coat'
p657
I1
tp658
a(g11
g12
S'front window'
p659
I1
tp660
a(g5
g6
S'party atmosphere'
p661
I1
tp662
a(g55
g56
S'red food truck'
p663
I1
tp664
a(g11
g12
S'couple shares passion'
p665
I1
tp666
a(g1
g2
S'purple blue dresses'
p667
I1
tp668
a(g11
g12
S'airborne'
p669
I1
tp670
a(g1
g2
S'blue speedo'
p671
I1
tp672
a(g11
g12
S'next piece art'
p673
I1
tp674
a(g11
g12
S'poor conditions'
p675
I1
tp676
a(g11
g12
S'black water'
p677
I1
tp678
a(g11
g12
S'binocular'
p679
I1
tp680
a(g1
g2
S'wicker cowboy hat'
p681
I1
tp682
a(g55
g56
S'decorated car'
p683
I1
tp684
a(g5
g6
S'large fountain'
p685
I1
tp686
a(g1
g2
S'hat'
p687
I1
tp688
a(g1
g2
S'shiny orange shirt'
p689
I1
tp690
a(g11
g12
S'blue pants scales'
p691
I1
tp692
a(g11
g12
S'many objects'
p693
I1
tp694
a(g11
g12
S'several cartoon characters'
p695
I1
tp696
a(g11
g12
S'indoor basketball game'
p697
I1
tp698
a(g11
g12
S'stair'
p699
I1
tp700
a(g11
g12
S'heat'
p701
I1
tp702
a(g11
g12
S'white refrigerator'
p703
I1
tp704
a(g17
S'How many people are present in the image ?'
p705
S'one female'
p706
I1
tp707
a(g5
g6
S'blue helmet wipes dirt'
p708
I1
tp709
a(g381
g382
S'harmonica'
p710
I1
tp711
a(g11
g12
S'display motorcycles'
p712
I1
tp713
a(g11
g12
S''
p714
I1
tp715
a(g11
g12
S'baby stare'
p716
I1
tp717
a(g5
g6
S'food stand'
p718
I1
tp719
a(g5
g6
S'desert'
p720
I1
tp721
a(g11
g12
S'computer ink'
p722
I1
tp723
a(g5
g6
S'gate post'
p724
I1
tp725
a(g5
g6
S'inside kiosk'
p726
I1
tp727
a(g5
g6
S'steep rocky cliffs'
p728
I1
tp729
a(g11
g12
S'phone cards'
p730
I1
tp731
a(g11
g12
S'manila folder'
p732
I1
tp733
a(g11
g12
S'women various ages'
p734
I1
tp735
a(g11
g12
S'rescue dummy'
p736
I1
tp737
a(g1
g2
S'african garb'
p738
I1
tp739
a(g196
g197
S'nearly four feet'
p740
I1
tp741
a(g5
g6
S'sidewalk street'
p742
I1
tp743
a(g11
g12
S'orange wheeled skates'
p744
I1
tp745
a(g11
g12
S'top lungs'
p746
I1
tp747
a(g5
g6
S'home'
p748
I1
tp749
a(g11
g12
S'geek squad sign'
p750
I1
tp751
a(g11
g12
S'blue hair ribbon'
p752
I1
tp753
a(g11
g12
S'outdoor carnival'
p754
I1
tp755
a(g11
g12
S'groves pines'
p756
I1
tp757
a(g5
g6
S'forest trail'
p758
I1
tp759
a(g17
S'How many people are present in the image ?'
p760
S'three women swimmers'
p761
I1
tp762
a(g5
g6
S'glass dolphin enclosure'
p763
I1
tp764
a(g55
g56
S'flatbed'
p765
I1
tp766
a(g5
g6
S'area'
p767
I1
tp768
a(g1
g2
S'tan colored shirt'
p769
I1
tp770
a(g11
g12
S'bales hay'
p771
I1
tp772
a(g1
g2
S'sparkly dress'
p773
I1
tp774
a(g11
g12
S'puppets'
p775
I1
tp776
a(g1
g2
S'traditional mexican clothing'
p777
I1
tp778
a(g1
g2
S'ceremonial dress'
p779
I1
tp780
a(g11
g12
S'variety foreign handmade snacks'
p781
I1
tp782
a(g196
g197
S'paws'
p783
I1
tp784
a(g11
g12
S'toys'
p785
I1
tp786
a(g11
g12
S'suitcase full toys'
p787
I1
tp788
a(g11
g12
S'cart fruit'
p789
I1
tp790
a(g11
g12
S'pink pants snowboards'
p791
I1
tp792
a(g11
g12
S'green brick walls'
p793
I1
tp794
a(g1
g2
S'white blue shoes'
p795
I1
tp796
a(g196
g197
S'pixie haircut'
p797
I1
tp798
a(g1
g2
S'martial arts'
p799
I1
tp800
a(g5
g6
S'studio'
p801
I1
tp802
a(g5
g6
g533
I1
tp803
a(g11
g12
S'school sweeter'
p804
I1
tp805
a(g11
g12
S'cellphone device'
p806
I1
tp807
a(g11
g12
S'ticket counter'
p808
I1
tp809
a(g11
g12
S'practice details'
p810
I1
tp811
a(g11
g12
S'plug'
p812
I1
tp813
a(g11
g12
S'company'
p814
I1
tp815
a(g5
g6
S'construction coal power plant'
p816
I1
tp817
a(g1
g2
g1
I1
tp818
a(g11
g12
S'another closeby'
p819
I1
tp820
a(g1
g2
S'black shoes'
p821
I1
tp822
a(g5
g6
S'stone staircase'
p823
I1
tp824
a(g5
g6
S'cobbled street'
p825
I1
tp826
a(g11
g12
S'machete'
p827
I1
tp828
a(g11
g12
S'new stunts'
p829
I1
tp830
a(g1
g2
S'pink jacket'
p831
I1
tp832
a(g196
g197
S'beret thin mustache'
p833
I1
tp834
a(g5
g6
S'chapel'
p835
I1
tp836
a(g5
g6
S'second'
p837
I1
tp838
a(g55
g56
S'back car'
p839
I1
tp840
a(g11
g12
S'red stick'
p841
I1
tp842
a(g11
g12
S'green buckets'
p843
I1
tp844
a(g5
g6
S'steep hill'
p845
I1
tp846
a(g11
g12
S'dark pants hammers'
p847
I1
tp848
a(g11
g12
S'large pillars'
p849
I1
tp850
a(g55
g56
S'yellow moped'
p851
I1
tp852
a(g1
g2
S'cheeky wings'
p853
I1
tp854
a(g1
g2
S'grayish blue shirt'
p855
I1
tp856
a(g196
g197
S'lip'
p857
I1
tp858
a(g11
g12
S'jelly'
p859
I1
tp860
a(g17
S'How many people are present in the image ?'
p861
S'shoulders two children'
p862
I1
tp863
a(g17
S'How many people are present in the image ?'
p864
S'7 army men'
p865
I1
tp866
a(g5
g6
S'outside beautiful building'
p867
I1
tp868
a(g196
g197
S'folded hands'
p869
I1
tp870
a(g11
g12
S'pair red tights'
p871
I1
tp872
a(g11
g12
S'smartphone'
p873
I1
tp874
a(g11
g12
S'group people socialize'
p875
I1
tp876
a(g1
g2
S'blue jerseys'
p877
I1
tp878
a(g196
g197
S'shoulder length brown hair'
p879
I1
tp880
a(g11
g12
S'floral patterened couch'
p881
I1
tp882
a(g11
g12
S'colorful sticks'
p883
I1
tp884
a(g17
S'How many people are present in the image ?'
p885
S'one younger child'
p886
I1
tp887
a(g11
g12
S'navy sparkly blue warms'
p888
I1
tp889
a(g11
g12
S'playground equipment'
p890
I1
tp891
a(g5
g6
S'antique shop'
p892
I1
tp893
a(g11
g12
S'climbing rocks'
p894
I1
tp895
a(g11
g12
S'taco'
p896
I1
tp897
a(g11
g12
S'yellow kayak'
p898
I1
tp899
a(g11
g12
S'car race'
p900
I1
tp901
a(g196
g197
S'green hair'
p902
I1
tp903
a(g1
g2
S'black white bag'
p904
I1
tp905
a(g11
g12
S'packing boxes'
p906
I1
tp907
a(g11
g12
S'usa'
p908
I1
tp909
a(g11
g12
S'scissors'
p910
I1
tp911
a(g1
g2
S'wild outfit'
p912
I1
tp913
a(g11
g12
S'brown lawn chairs'
p914
I1
tp915
a(g11
g12
S'tall ceilings'
p916
I1
tp917
a(g5
g6
S'side building'
p918
I1
tp919
a(g11
g12
S'silver wall'
p920
I1
tp921
a(g11
g12
S'pink shit'
p922
I1
tp923
a(g11
g12
S'fabric flowers'
p924
I1
tp925
a(g1
g2
S'navy pants'
p926
I1
tp927
a(g11
g12
g399
I1
tp928
a(g11
g12
S'tall sticks'
p929
I1
tp930
a(g196
g197
S'goggles frowns'
p931
I1
tp932
a(g11
g12
S'palm trees'
p933
I1
tp934
a(g11
g12
S'clipboard'
p935
I1
tp936
a(g11
g12
S'tray small toys'
p937
I1
tp938
a(g11
g12
S'buffet'
p939
I1
tp940
a(g5
g6
S'hot sunny day'
p941
I1
tp942
a(g11
g12
S'red mark'
p943
I1
tp944
a(g11
g12
S'recital'
p945
I1
tp946
a(g1
g2
S'american flag costume'
p947
I1
tp948
a(g1
g2
S'back jumpsuits'
p949
I1
tp950
a(g1
g2
S'green brown shirt'
p951
I1
tp952
a(g17
S'How many people are present in the image ?'
p953
S'one guy'
p954
I1
tp955
a(g17
S'How many people are present in the image ?'
p956
S'two young siblings'
p957
I1
tp958
a(g11
g12
S'carved lintel'
p959
I1
tp960
a(g5
g6
S'rubble'
p961
I1
tp962
a(g5
g6
S'urban park'
p963
I1
tp964
a(g5
g6
S'field aviation museum'
p965
I1
tp966
a(g5
g6
S'realty store'
p967
I1
tp968
a(g1
g2
S'judge costume'
p969
I1
tp970
a(g5
g6
S'wet soccer field'
p971
I1
tp972
a(g11
g12
S'bag trash'
p973
I1
tp974
a(g11
g12
S'heavy loading machinery'
p975
I1
tp976
a(g55
g56
S'red trucks'
p977
I1
tp978
a(g1
g2
S'sleeve'
p979
I1
tp980
a(g11
g12
S'outside playing cards'
p981
I1
tp982
a(g11
g12
S'white piece plastic'
p983
I1
tp984
a(g11
g12
S'pic'
p985
I1
tp986
a(g11
g12
S'golf skills'
p987
I1
tp988
a(g11
g12
S'statue liberty'
p989
I1
tp990
a(g55
g56
S'mural car'
p991
I1
tp992
a(g11
g12
S'two others'
p993
I1
tp994
a(g1
g2
g254
I1
tp995
a(g5
g6
S'pretzel stand'
p996
I1
tp997
a(g1
g2
S'light blue bag'
p998
I1
tp999
a(g1
g2
S'gray winter hat'
p1000
I1
tp1001
a(g5
g6
S'bushes'
p1002
I1
tp1003
a(g5
g6
S'temple'
p1004
I1
tp1005
a(g196
g197
S'retro hairstyle'
p1006
I1
tp1007
a(g11
g12
S'52'
p1008
I1
tp1009
a(g11
g12
S'birthday candle'
p1010
I1
tp1011
a(g11
g12
S'pink picks flowers'
p1012
I1
tp1013
a(g11
g12
S'traditional gaucho wear'
p1014
I1
tp1015
a(g5
g6
S'grass'
p1016
I1
tp1017
a(g196
g197
S'hands'
p1018
I1
tp1019
a(g11
g12
S'monopoly'
p1020
I1
tp1021
a(g11
g12
S'ships'
p1022
I1
tp1023
a(g11
g12
S'keyboard'
p1024
I1
tp1025
a(g11
g12
S'yellow curtain'
p1026
I1
tp1027
a(g5
g6
S'outdoor public space'
p1028
I1
tp1029
a(g11
g12
S'totes'
p1030
I1
tp1031
a(g11
g12
S'# 28'
p1032
I1
tp1033
a(g1
g2
S'bright orange uniforms'
p1034
I1
tp1035
a(g11
g12
S'thin tree'
p1036
I1
tp1037
a(g11
g12
S'strange stage show'
p1038
I1
tp1039
a(g11
g12
S'concrete wall'
p1040
I1
tp1041
a(g1
g2
S'long veils'
p1042
I1
tp1043
a(g11
g12
S'clean indoor station'
p1044
I1
tp1045
a(g11
g12
S'bottom set'
p1046
I1
tp1047
a(g1
g2
S'british shirt'
p1048
I1
tp1049
a(g11
g12
S'newest museum exhibit'
p1050
I1
tp1051
a(g11
g12
S'orange pillow'
p1052
I1
tp1053
a(g11
g12
S'glides'
p1054
I1
tp1055
a(g55
g56
S'old couples bike'
p1056
I1
tp1057
a(g1
g2
S'exotic outfit'
p1058
I1
tp1059
a(g11
g12
S'pink blanket'
p1060
I1
tp1061
a(g5
g6
S'downtown area'
p1062
I1
tp1063
a(g11
g12
S'printed material'
p1064
I1
tp1065
a(g11
g12
S'dance'
p1066
I1
tp1067
a(g11
g12
S'teal colored wall'
p1068
I1
tp1069
a(g5
g6
S'living area'
p1070
I1
tp1071
a(g11
g12
S'holiday display'
p1072
I1
tp1073
a(g5
g6
S'pretty day'
p1074
I1
tp1075
a(g1
g2
S'blue yellow feathers'
p1076
I1
tp1077
a(g1
g2
S'dressy clothes'
p1078
I1
tp1079
a(g1
g2
S'black rimmed glasses'
p1080
I1
tp1081
a(g11
g12
S'first glimpse wonders'
p1082
I1
tp1083
a(g1
g2
S'light pink jacket'
p1084
I1
tp1085
a(g1
g2
S'blue jean jacket'
p1086
I1
tp1087
a(g11
g12
S'yoga mats'
p1088
I1
tp1089
a(g11
g12
S'food concessions'
p1090
I1
tp1091
a(g11
g12
S'hats paddle'
p1092
I1
tp1093
a(g17
S'How many people are present in the image ?'
p1094
S'two ambulance workers'
p1095
I1
tp1096
a(g11
g12
S'hose'
p1097
I1
tp1098
a(g1
g2
S'pink bottoms'
p1099
I1
tp1100
a(g5
g6
S'edge swimming pool'
p1101
I1
tp1102
a(g1
g2
S'tattered clothes'
p1103
I1
tp1104
a(g55
g56
S'many different types vehicles'
p1105
I1
tp1106
a(g1
g2
S'hello kitty mittens'
p1107
I1
tp1108
a(g11
g12
S'chilly morning'
p1109
I1
tp1110
a(g11
g12
S'high'
p1111
I1
tp1112
a(g11
g12
S'purple jug'
p1113
I1
tp1114
a(g1
g2
S'red dress'
p1115
I1
tp1116
a(g11
g12
S'record'
p1117
I1
tp1118
a(g11
g12
S'santa claus'
p1119
I1
tp1120
a(g1
g2
S'biking suits'
p1121
I1
tp1122
a(g11
g12
S'food'
p1123
I1
tp1124
a(g1
g2
S'red glasses'
p1125
I1
tp1126
a(g1
g2
S'mask'
p1127
I1
tp1128
a(g11
g12
S'white plastic chairs'
p1129
I1
tp1130
a(g11
g12
S'plant related task'
p1131
I1
tp1132
a(g5
g6
S'straw roof'
p1133
I1
tp1134
a(g11
g12
S'champagne corks'
p1135
I1
tp1136
a(g11
g12
S'brown horses race'
p1137
I1
tp1138
a(g11
g12
S'ceiling railway'
p1139
I1
tp1140
a(g1
g2
S'dark plaid shirt'
p1141
I1
tp1142
a(g11
g12
S'prepared course'
p1143
I1
tp1144
a(g1
g2
S'gloves'
p1145
I1
tp1146
a(g11
g12
S'blue net'
p1147
I1
tp1148
a(g11
g12
S'coral'
p1149
I1
tp1150
a(g11
g12
S'maroon cloth'
p1151
I1
tp1152
a(g11
g12
S'door step'
p1153
I1
tp1154
a(g11
g12
S'yellow splashes'
p1155
I1
tp1156
a(g11
g12
S'mixed martial arts competition'
p1157
I1
tp1158
a(g1
g2
S'flip blue'
p1159
I1
tp1160
a(g11
g12
S'opposite couches'
p1161
I1
tp1162
a(g11
g12
S'games'
p1163
I1
tp1164
a(g11
g12
S'work'
p1165
I1
tp1166
a(g5
g6
S'staircase'
p1167
I1
tp1168
a(g55
g56
S'toy truck'
p1169
I1
tp1170
a(g11
g12
S'green handrail'
p1171
I1
tp1172
a(g11
g12
S'top trapeze'
p1173
I1
tp1174
a(g11
g12
S'kind party'
p1175
I1
tp1176
a(g11
g12
S'outside wall'
p1177
I1
tp1178
a(g11
g12
S'graduation'
p1179
I1
tp1180
a(g11
g12
S'banner'
p1181
I1
tp1182
a(g11
g12
S'figures'
p1183
I1
tp1184
a(g1
g2
S'superman cape'
p1185
I1
tp1186
a(g11
g12
S'statue bust'
p1187
I1
tp1188
a(g11
g12
S'lip balm'
p1189
I1
tp1190
a(g17
S'How many people are present in the image ?'
p1191
S'ballet class five girls'
p1192
I1
tp1193
a(g11
g12
S'icing'
p1194
I1
tp1195
a(g11
g12
S'electric candles'
p1196
I1
tp1197
a(g5
g6
S'small indoor space'
p1198
I1
tp1199
a(g11
g12
S'amp'
p1200
I1
tp1201
a(g11
g12
S'number'
p1202
I1
tp1203
a(g11
g12
S'announcement'
p1204
I1
tp1205
a(g5
g6
S'sides entrance'
p1206
I1
tp1207
a(g17
S'How many people are present in the image ?'
p1208
S'five girls'
p1209
I1
tp1210
a(g11
g12
S'large metal bowl'
p1211
I1
tp1212
a(g5
g6
S'paved road'
p1213
I1
tp1214
a(g1
g2
S'one colorful sock'
p1215
I1
tp1216
a(g1
g2
S'red uniform'
p1217
I1
tp1218
a(g11
g12
S'fire stick'
p1219
I1
tp1220
a(g11
g12
S'musical equipment'
p1221
I1
tp1222
a(g11
g12
S'stairs monument'
p1223
I1
tp1224
a(g5
g6
S'summer'
p1225
I1
tp1226
a(g11
g12
S'stops'
p1227
I1
tp1228
a(g11
g12
S'conclusion doubles tennis match'
p1229
I1
tp1230
a(g1
g2
S'blue pants'
p1231
I1
tp1232
a(g11
g12
S'distance move'
p1233
I1
tp1234
a(g5
g6
S'pavilion'
p1235
I1
tp1236
a(g11
g12
S'gold tag'
p1237
I1
tp1238
a(g11
g12
S'star wars'
p1239
I1
tp1240
a(g11
g12
S'screaming'
p1241
I1
tp1242
a(g5
g6
S'sunny cold day'
p1243
I1
tp1244
a(g1
g2
S'bathing suits'
p1245
I1
tp1246
a(g1
g2
S'blue red gloves'
p1247
I1
tp1248
a(g1
g2
S'leather glove'
p1249
I1
tp1250
a(g11
g12
S'browsing'
p1251
I1
tp1252
a(g1
g2
S'blue pink swimsuit'
p1253
I1
tp1254
a(g11
g12
S'twister'
p1255
I1
tp1256
a(g11
g12
S'painted glass cups'
p1257
I1
tp1258
a(g11
g12
S'contents bottle'
p1259
I1
tp1260
a(g5
g6
S'middle lot'
p1261
I1
tp1262
a(g5
g6
S'grill outside'
p1263
I1
tp1264
a(g11
g12
S'exhaust pipe'
p1265
I1
tp1266
a(g11
g12
S'towel'
p1267
I1
tp1268
a(g55
g56
S'subway car'
p1269
I1
tp1270
a(g1
g2
S'brimmed hat'
p1271
I1
tp1272
a(g5
g6
S'white red car tips'
p1273
I1
tp1274
a(g11
g12
S'large rocky boulder'
p1275
I1
tp1276
a(g11
g12
S'college basketball'
p1277
I1
tp1278
a(g11
g12
S'sub sandwiches'
p1279
I1
tp1280
a(g196
g197
S'front paws'
p1281
I1
tp1282
a(g5
g6
S'united states'
p1283
I1
tp1284
a(g11
g12
S'crab dinner'
p1285
I1
tp1286
a(g1
g2
S'bright yellow red vests'
p1287
I1
tp1288
a(g11
g12
S'sports spark'
p1289
I1
tp1290
a(g55
g56
S'drivers seat car'
p1291
I1
tp1292
a(g11
g12
S'tae kwon'
p1293
I1
tp1294
a(g11
g12
S'dust mop'
p1295
I1
tp1296
a(g11
g12
S'two pails'
p1297
I1
tp1298
a(g1
g2
S'clown costume'
p1299
I1
tp1300
a(g5
g6
S'cow farm'
p1301
I1
tp1302
a(g17
S'How many people are present in the image ?'
p1303
S'sounds 4 men'
p1304
I1
tp1305
a(g11
g12
S'recent roller derby match'
p1306
I1
tp1307
a(g11
g12
S'game fencing'
p1308
I1
tp1309
a(g11
g12
S'bike pedals'
p1310
I1
tp1311
a(g1
g2
S'black sailor '
p1312
I1
tp1313
a(g5
g6
S'cement floor'
p1314
I1
tp1315
a(g1
g2
S'olive drab uniforms'
p1316
I1
tp1317
a(g11
g12
S'portrait'
p1318
I1
tp1319
a(g5
g6
S'evening'
p1320
I1
tp1321
a(g1
g2
S'black white jersey'
p1322
I1
tp1323
a(g5
g6
S'shabby house'
p1324
I1
tp1325
a(g11
g12
S'white tub'
p1326
I1
tp1327
a(g1
g2
S'green work helmet'
p1328
I1
tp1329
a(g1
g2
S'brown shoes'
p1330
I1
tp1331
a(g1
g2
S'white blue green shirt'
p1332
I1
tp1333
a(g381
g382
S'bagpipes'
p1334
I1
tp1335
a(g11
g12
S'brick'
p1336
I1
tp1337
a(g5
g6
S'green shrubbery'
p1338
I1
tp1339
a(g11
g12
S'one star'
p1340
I1
tp1341
a(g11
g12
S'secrets'
p1342
I1
tp1343
a(g11
g12
S'rickshaw handcart'
p1344
I1
tp1345
a(g11
g12
S'meet'
p1346
I1
tp1347
a(g11
g12
S'saguaro cactus'
p1348
I1
tp1349
a(g17
S'How many people are present in the image ?'
p1350
S'two sumo wrestlers'
p1351
I1
tp1352
a(g11
g12
S'small notebook'
p1353
I1
tp1354
a(g1
g2
S'scary costume'
p1355
I1
tp1356
a(g1
g2
S'white shawl'
p1357
I1
tp1358
a(g11
g12
S'paper item'
p1359
I1
tp1360
a(g11
g12
S'two'
p1361
I1
tp1362
a(g11
g12
S'closed sign'
p1363
I1
tp1364
a(g11
g12
S'blue towel'
p1365
I1
tp1366
a(g5
g6
S'pile blocks'
p1367
I1
tp1368
a(g196
g197
S'front hair'
p1369
I1
tp1370
a(g11
g12
S'install new shingles'
p1371
I1
tp1372
a(g11
g12
S'bar stool'
p1373
I1
tp1374
a(g1
g2
S'sailor whites'
p1375
I1
tp1376
a(g11
g12
S'bun'
p1377
I1
tp1378
a(g11
g12
S'lights'
p1379
I1
tp1380
a(g5
g6
S'great spot'
p1381
I1
tp1382
a(g11
g12
S'foundation'
p1383
I1
tp1384
a(g11
g12
S'red'
p1385
I1
tp1386
a(g5
g6
S'cemetery'
p1387
I1
tp1388
a(g11
g12
S'branches leafless tree'
p1389
I1
tp1390
a(g196
g197
S'hand'
p1391
I1
tp1392
a(g11
g12
S'run'
p1393
I1
tp1394
a(g5
g6
S'skirvin farms'
p1395
I1
tp1396
a(g11
g12
S'racket'
p1397
I1
tp1398
a(g11
g12
S'computer mice'
p1399
I1
tp1400
a(g11
g12
S'green head garment painting'
p1401
I1
tp1402
a(g1
g2
S'matching outfits'
p1403
I1
tp1404
a(g11
g12
S'cliffside vista'
p1405
I1
tp1406
a(g11
g12
S'business'
p1407
I1
tp1408
a(g11
g12
S'bright yellow construction gear'
p1409
I1
tp1410
a(g11
g12
S'jog'
p1411
I1
tp1412
a(g5
g6
S'pink building'
p1413
I1
tp1414
a(g11
g12
S'bubble bath'
p1415
I1
tp1416
a(g11
g12
S'wire'
p1417
I1
tp1418
a(g1
g2
S'accented shirts'
p1419
I1
tp1420
a(g11
g12
S'great enjoyment'
p1421
I1
tp1422
a(g11
g12
S'old style microphone'
p1423
I1
tp1424
a(g17
S'How many people are present in the image ?'
p1425
S'one young girl'
p1426
I1
tp1427
a(g11
g12
S'sewer drain'
p1428
I1
tp1429
a(g11
g12
S'dance competition'
p1430
I1
tp1431
a(g11
g12
S'green lights'
p1432
I1
tp1433
a(g5
g6
S'inside building'
p1434
I1
tp1435
a(g5
g6
S'wet grass'
p1436
I1
tp1437
a(g11
g12
S'plastic bottles'
p1438
I1
tp1439
a(g196
g197
S'red facial hair'
p1440
I1
tp1441
a(g5
g6
S'shower'
p1442
I1
tp1443
a(g11
g12
S'small box'
p1444
I1
tp1445
a(g11
g12
S'opposite direction others'
p1446
I1
tp1447
a(g11
g12
S'competition'
p1448
I1
tp1449
a(g1
g2
S'green sports bra'
p1450
I1
tp1451
a(g5
g6
S'park'
p1452
I1
tp1453
a(g11
g12
S'neon yellow reflectors'
p1454
I1
tp1455
a(g11
g12
S'religious ceremonies'
p1456
I1
tp1457
a(g5
g6
S'interior kitchen'
p1458
I1
tp1459
a(g11
g12
S'children sign'
p1460
I1
tp1461
a(g1
g2
S'blue basketball uniforms'
p1462
I1
tp1463
a(g5
g6
S'trumpet outside'
p1464
I1
tp1465
a(g5
g6
S'street poor'
p1466
I1
tp1467
a(g55
g56
S'model biplane'
p1468
I1
tp1469
a(g11
g12
S'red top rail'
p1470
I1
tp1471
a(g11
g12
S'yellow warning tape'
p1472
I1
tp1473
a(g5
g6
S'open plaza'
p1474
I1
tp1475
a(g5
g6
S'department store'
p1476
I1
tp1477
a(g11
g12
S'side wall'
p1478
I1
tp1479
a(g5
g6
S'nice lawn'
p1480
I1
tp1481
a(g11
g12
S'wall mirrors'
p1482
I1
tp1483
a(g5
g6
S'metal piece fence'
p1484
I1
tp1485
a(g5
g6
S'item stand'
p1486
I1
tp1487
a(g11
g12
S'hot pads'
p1488
I1
tp1489
a(g11
g12
S'wooden box'
p1490
I1
tp1491
a(g5
g6
S'sandy floor'
p1492
I1
tp1493
a(g5
g6
S'white tee'
p1494
I1
tp1495
a(g11
g12
S'maybe tokyo'
p1496
I1
tp1497
a(g11
g12
S'apron cuts'
p1498
I1
tp1499
a(g11
g12
S'mushroom'
p1500
I1
tp1501
a(g11
g12
S'winter wear'
p1502
I1
tp1503
a(g11
g12
S'two women '
p1504
I1
tp1505
a(g11
g12
S'scale'
p1506
I1
tp1507
a(g1
g2
S'full face mask'
p1508
I1
tp1509
a(g1
g2
S'doctors coat'
p1510
I1
tp1511
a(g1
g2
S'matching mask'
p1512
I1
tp1513
a(g1
g2
S'red print dress'
p1514
I1
tp1515
a(g11
g12
S'bungee'
p1516
I1
tp1517
a(g196
g197
S'blond woman '
p1518
I1
tp1519
a(g11
g12
S'land mass'
p1520
I1
tp1521
a(g5
g6
S'small garden outside'
p1522
I1
tp1523
a(g5
g6
S'rock bridge'
p1524
I1
tp1525
a(g17
S'How many people are present in the image ?'
p1526
S'two helmeted men'
p1527
I1
tp1528
a(g5
g6
S'tomb'
p1529
I1
tp1530
a(g11
g12
S'armchair'
p1531
I1
tp1532
a(g17
S'How many people are present in the image ?'
p1533
S'one indian boy'
p1534
I1
tp1535
a(g1
g2
S'black sling bag'
p1536
I1
tp1537
a(g1
g2
S'blue purple striped shirt'
p1538
I1
tp1539
a(g11
g12
S'adult soccer game'
p1540
I1
tp1541
a(g5
g6
S'large pier'
p1542
I1
tp1543
a(g17
S'How many people are present in the image ?'
p1544
S'middle four men'
p1545
I1
tp1546
a(g5
g6
S'old building'
p1547
I1
tp1548
a(g11
g12
S'battery powered locomotives'
p1549
I1
tp1550
a(g5
g6
S'oriental shop'
p1551
I1
tp1552
a(g1
g2
S'wings'
p1553
I1
tp1554
a(g11
g12
S'red white confetti'
p1555
I1
tp1556
a(g1
g2
S'large goggles'
p1557
I1
tp1558
a(g11
g12
S'plastic sled'
p1559
I1
tp1560
a(g11
g12
S'stone table'
p1561
I1
tp1562
a(g196
g197
S'tongue'
p1563
I1
tp1564
a(g1
g2
S'blue plaid shirt'
p1565
I1
tp1566
a(g5
g6
S'pier lake'
p1567
I1
tp1568
a(g11
g12
S'colorful squares'
p1569
I1
tp1570
a(g11
g12
S'powerpoint'
p1571
I1
tp1572
a(g1
g2
S'muddy jeans'
p1573
I1
tp1574
a(g11
g12
S'dinner conversation'
p1575
I1
tp1576
a(g5
g6
S'heavily tree'
p1577
I1
tp1578
a(g17
S'How many people are present in the image ?'
p1579
S'two teens'
p1580
I1
tp1581
a(g5
g6
S'tiled street'
p1582
I1
tp1583
a(g1
g2
S'red headband'
p1584
I1
tp1585
a(g5
g6
S'grassy parking area'
p1586
I1
tp1587
a(g11
g12
S'picture fruit'
p1588
I1
tp1589
a(g11
g12
S'dinner'
p1590
I1
tp1591
a(g11
g12
S'candle'
p1592
I1
tp1593
a(g11
g12
S'plastic toys'
p1594
I1
tp1595
a(g5
g6
S'water jets'
p1596
I1
tp1597
a(g5
g6
S'left'
p1598
I1
tp1599
a(g11
g12
S'sun'
p1600
I1
tp1601
a(g11
g12
S'life fitness treadmill'
p1602
I1
tp1603
a(g196
g197
S'low wave head'
p1604
I1
tp1605
a(g1
g2
S'blue orange dress'
p1606
I1
tp1607
a(g1
g2
S'shoe'
p1608
I1
tp1609
a(g5
g6
S'family room'
p1610
I1
tp1611
a(g11
g12
g174
I1
tp1612
a(g5
g6
S'shipping harbor'
p1613
I1
tp1614
a(g196
g197
S'bald head'
p1615
I1
tp1616
a(g11
g12
S'metal pole'
p1617
I1
tp1618
a(g11
g12
S'blue street sign'
p1619
I1
tp1620
a(g11
g12
S'wooden boards'
p1621
I1
tp1622
a(g11
g12
S'perfume'
p1623
I1
tp1624
a(g11
g12
S'railway lines'
p1625
I1
tp1626
a(g1
g2
S'yellow'
p1627
I1
tp1628
a(g596
S'How many animals are present in the image ?'
p1629
S'two geese'
p1630
I1
tp1631
a(g11
g12
S'red lights flash'
p1632
I1
tp1633
a(g11
g12
S'rodeo'
p1634
I1
tp1635
a(g55
g56
S'nearby scooter'
p1636
I1
tp1637
a(g5
g6
S'hill'
p1638
I1
tp1639
a(g11
g12
S'outdoor group exercise'
p1640
I1
tp1641
a(g1
g2
S'long black coat'
p1642
I1
tp1643
a(g11
g12
S'magnifying lenses'
p1644
I1
tp1645
a(g11
g12
S'entrance cafe'
p1646
I1
tp1647
a(g11
g12
S'mulch'
p1648
I1
tp1649
a(g11
g12
S'field fresh corn'
p1650
I1
tp1651
a(g11
g12
S'orange bonnet'
p1652
I1
tp1653
a(g5
g6
S'workplace'
p1654
I1
tp1655
a(g5
g6
S'picturesque day'
p1656
I1
tp1657
a(g11
g12
S'similar shaped object'
p1658
I1
tp1659
a(g5
g6
S'large white building'
p1660
I1
tp1661
a(g55
g56
S'cars'
p1662
I1
tp1663
a(g5
g6
S'wooden walkway'
p1664
I1
tp1665
a(g11
g12
S'black tassel'
p1666
I1
tp1667
a(g5
g6
S'skydiving drip'
p1668
I1
tp1669
a(g11
g12
S'onions'
p1670
I1
tp1671
a(g11
g12
S'maintenance work'
p1672
I1
tp1673
a(g196
g197
g714
I1
tp1674
a(g11
g12
S'caboose'
p1675
I1
tp1676
a(g17
S'How many people are present in the image ?'
p1677
S'two potential customers'
p1678
I1
tp1679
a(g11
g12
S'boy shovels sand'
p1680
I1
tp1681
a(g11
g12
S'temporary railings'
p1682
I1
tp1683
a(g196
g197
S'protective knee'
p1684
I1
tp1685
a(g11
g12
S'building debris'
p1686
I1
tp1687
a(g1
g2
S'striped blue polo shirts'
p1688
I1
tp1689
a(g17
S'How many people are present in the image ?'
p1690
S'two guys'
p1691
I1
tp1692
a(g11
g12
S'sludge hammer'
p1693
I1
tp1694
a(g11
g12
S'public sprinklers'
p1695
I1
tp1696
a(g11
g12
S'cowboy hat ropes'
p1697
I1
tp1698
a(g5
g6
S'italian airport'
p1699
I1
tp1700
a(g11
g12
S'rooming'
p1701
I1
tp1702
a(g11
g12
S'interaction'
p1703
I1
tp1704
a(g1
g2
S'red helmet'
p1705
I1
tp1706
a(g11
g12
S'money hahaha'
p1707
I1
tp1708
a(g11
g12
S'handle grill'
p1709
I1
tp1710
a(g5
g6
S'powerade sponsored event'
p1711
I1
tp1712
a(g11
g12
S'dirt racetrack'
p1713
I1
tp1714
a(g1
g2
S'gray shirt'
p1715
I1
tp1716
a(g5
g6
S'grassy park'
p1717
I1
tp1718
a(g11
g12
S'patio one'
p1719
I1
tp1720
a(g11
g12
S'grocery '
p1721
I1
tp1722
a(g11
g12
S'saris hair wraps'
p1723
I1
tp1724
a(g11
g12
S'field flowers'
p1725
I1
tp1726
a(g5
g6
S'states'
p1727
I1
tp1728
a(g11
g12
S'green white striped awning'
p1729
I1
tp1730
a(g11
g12
S'red heart'
p1731
I1
tp1732
a(g11
g12
S'blue chair'
p1733
I1
tp1734
a(g11
g12
S'6 beers'
p1735
I1
tp1736
a(g11
g12
S'easels'
p1737
I1
tp1738
a.