(dp0
S'and'
p1
I0
sS'What'
p2
I1
sS'people'
p3
I2
sS'instruments'
p4
I3
sS'is'
p5
I4
sS'scene'
p6
I5
sS'How'
p7
I6
sS'Choose'
p8
I7
sS'Which'
p9
I8
sS'in'
p10
I9
sS'best'
p11
I10
sS'shown'
p12
I11
sS'describes'
p13
I12
sS'type'
p14
I13
sS'image'
p15
I14
sS'?'
p16
I15
sS'wearing'
p17
I16
sS'option'
p18
I17
sS'that'
p19
I18
sS'bodypart'
p20
I19
sS'present'
p21
I20
sS'animals'
p22
I21
sS'of'
p23
I22
sS'person'
p24
I23
sS'vehicle(s)'
p25
I24
sS'Identify'
p26
I25
sS'many'
p27
I26
sS'following'
p28
I27
sS'the'
p29
I28
sS'Select'
p30
I29
sS'are'
p31
I30
s.